

Microchip MPLAB XC8 Assembler V2.35 build 20211206165544 
                                                                                               Sat Apr  9 23:21:57 2022

Microchip MPLAB XC8 C Compiler v2.35 (Free license) build 20211206165544 Og1 
     1                           	processor	16F1827
     2                           	pagewidth 120
     3                           	opt	flic
     4                           	psect	cinit,global,class=CODE,merge=1,delta=2
     5                           	psect	bssBANK0,global,class=BANK0,space=1,delta=1,noexec
     6                           	psect	bssBANK1,global,class=BANK1,space=1,delta=1,noexec
     7                           	psect	cstackBANK1,global,class=BANK1,space=1,delta=1,noexec
     8                           	psect	cstackCOMMON,global,class=COMMON,space=1,delta=1,noexec
     9                           	psect	cstackBANK0,global,class=BANK0,space=1,delta=1,noexec
    10                           	psect	maintext,global,class=CODE,merge=1,split=1,delta=2
    11                           	psect	text1,local,class=CODE,merge=1,delta=2
    12                           	psect	intentry,global,class=CODE,delta=2
    13                           	psect	text3,local,class=CODE,merge=1,delta=2
    14                           	psect	text4,local,class=CODE,merge=1,delta=2
    15                           	psect	text5,local,class=CODE,merge=1,delta=2,group=1
    16                           	psect	text6,local,class=CODE,merge=1,delta=2,group=1
    17                           	psect	text7,local,class=CODE,merge=1,delta=2,group=1
    18                           	psect	text8,local,class=CODE,merge=1,delta=2,group=1
    19                           	psect	text9,local,class=CODE,merge=1,delta=2,group=1
    20                           	psect	idloc,global,abs,ovrld,class=IDLOC,space=5,delta=2,noexec
    21                           	psect	config,global,abs,ovrld,class=CONFIG,space=4,delta=2,noexec
    22                           	dabs	1,0x7E,2
    23  0000                     
    24                           ; Version 2.40
    25                           ; Generated 17/11/2021 GMT
    26                           ; 
    27                           ; Copyright © 2021, Microchip Technology Inc. and its subsidiaries ("Microchip")
    28                           ; All rights reserved.
    29                           ; 
    30                           ; This software is developed by Microchip Technology Inc. and its subsidiaries ("Microch
      +                          ip").
    31                           ; 
    32                           ; Redistribution and use in source and binary forms, with or without modification, are
    33                           ; permitted provided that the following conditions are met:
    34                           ; 
    35                           ;     1. Redistributions of source code must retain the above copyright notice, this lis
      +                          t of
    36                           ;        conditions and the following disclaimer.
    37                           ; 
    38                           ;     2. Redistributions in binary form must reproduce the above copyright notice, this 
      +                          list
    39                           ;        of conditions and the following disclaimer in the documentation and/or other
    40                           ;        materials provided with the distribution. Publication is not required when
    41                           ;        this file is used in an embedded application.
    42                           ; 
    43                           ;     3. Microchip's name may not be used to endorse or promote products derived from th
      +                          is
    44                           ;        software without specific prior written permission.
    45                           ; 
    46                           ; THIS SOFTWARE IS PROVIDED BY MICROCHIP "AS IS" AND ANY EXPRESS OR IMPLIED WARRANTIES,
    47                           ; INCLUDING, BUT NOT LIMITED TO, THE IMPLIED WARRANTIES OF MERCHANTABILITY AND FITNESS F
      +                          OR
    48                           ; PURPOSE ARE DISCLAIMED.  IN NO EVENT SHALL MICROCHIP BE LIABLE FOR ANY DIRECT, INDIREC
      +                          T,
    49                           ; INCIDENTAL, SPECIAL, EXEMPLARY, OR CONSEQUENTIAL DAMAGES (INCLUDING BUT NOT LIMITED TO
    50                           ; PROCUREMENT OF SUBSTITUTE GOODS OR SERVICES; LOSS OF USE, DATA OR PROFITS; OR BUSINESS
    51                           ; INTERRUPTION) HOWSOEVER CAUSED AND ON ANY THEORY OF LIABILITY, WHETHER IN CONTRACT, ST
      +                          RICT
    52                           ; LIABILITY, OR TORT (INCLUDING NEGLIGENCE OR OTHERWISE) ARISING IN ANY WAY OUT OF THE U
      +                          SE OF
    53                           ; THIS SOFTWARE, EVEN IF ADVISED OF THE POSSIBILITY OF SUCH DAMAGE.
    54                           ; 
    55                           ; 
    56                           ; Code-generator required, PIC16F1827 Definitions
    57                           ; 
    58                           ; SFR Addresses
    59  0000                     	;# 
    60  0001                     	;# 
    61  0002                     	;# 
    62  0003                     	;# 
    63  0004                     	;# 
    64  0005                     	;# 
    65  0006                     	;# 
    66  0007                     	;# 
    67  0008                     	;# 
    68  0009                     	;# 
    69  000A                     	;# 
    70  000B                     	;# 
    71  000C                     	;# 
    72  000D                     	;# 
    73  0011                     	;# 
    74  0012                     	;# 
    75  0013                     	;# 
    76  0014                     	;# 
    77  0015                     	;# 
    78  0016                     	;# 
    79  0016                     	;# 
    80  0017                     	;# 
    81  0018                     	;# 
    82  0019                     	;# 
    83  001A                     	;# 
    84  001B                     	;# 
    85  001C                     	;# 
    86  001E                     	;# 
    87  001F                     	;# 
    88  008C                     	;# 
    89  008D                     	;# 
    90  0091                     	;# 
    91  0092                     	;# 
    92  0093                     	;# 
    93  0094                     	;# 
    94  0095                     	;# 
    95  0096                     	;# 
    96  0097                     	;# 
    97  0098                     	;# 
    98  0099                     	;# 
    99  009A                     	;# 
   100  009B                     	;# 
   101  009B                     	;# 
   102  009C                     	;# 
   103  009D                     	;# 
   104  009E                     	;# 
   105  010C                     	;# 
   106  010D                     	;# 
   107  0111                     	;# 
   108  0112                     	;# 
   109  0113                     	;# 
   110  0114                     	;# 
   111  0115                     	;# 
   112  0116                     	;# 
   113  0117                     	;# 
   114  0118                     	;# 
   115  0119                     	;# 
   116  011A                     	;# 
   117  011B                     	;# 
   118  011D                     	;# 
   119  011E                     	;# 
   120  018C                     	;# 
   121  018D                     	;# 
   122  0191                     	;# 
   123  0191                     	;# 
   124  0192                     	;# 
   125  0193                     	;# 
   126  0193                     	;# 
   127  0193                     	;# 
   128  0194                     	;# 
   129  0195                     	;# 
   130  0196                     	;# 
   131  0199                     	;# 
   132  019A                     	;# 
   133  019B                     	;# 
   134  019B                     	;# 
   135  019B                     	;# 
   136  019B                     	;# 
   137  019C                     	;# 
   138  019C                     	;# 
   139  019D                     	;# 
   140  019E                     	;# 
   141  019F                     	;# 
   142  020C                     	;# 
   143  020D                     	;# 
   144  0211                     	;# 
   145  0211                     	;# 
   146  0212                     	;# 
   147  0212                     	;# 
   148  0213                     	;# 
   149  0213                     	;# 
   150  0214                     	;# 
   151  0214                     	;# 
   152  0215                     	;# 
   153  0215                     	;# 
   154  0215                     	;# 
   155  0216                     	;# 
   156  0216                     	;# 
   157  0217                     	;# 
   158  0217                     	;# 
   159  0219                     	;# 
   160  021A                     	;# 
   161  021B                     	;# 
   162  021C                     	;# 
   163  021D                     	;# 
   164  021E                     	;# 
   165  021F                     	;# 
   166  0291                     	;# 
   167  0291                     	;# 
   168  0292                     	;# 
   169  0293                     	;# 
   170  0294                     	;# 
   171  0295                     	;# 
   172  0295                     	;# 
   173  0296                     	;# 
   174  0298                     	;# 
   175  0298                     	;# 
   176  0299                     	;# 
   177  029A                     	;# 
   178  029B                     	;# 
   179  029C                     	;# 
   180  029C                     	;# 
   181  029D                     	;# 
   182  029E                     	;# 
   183  029E                     	;# 
   184  0311                     	;# 
   185  0311                     	;# 
   186  0312                     	;# 
   187  0313                     	;# 
   188  0318                     	;# 
   189  0318                     	;# 
   190  0319                     	;# 
   191  031A                     	;# 
   192  0394                     	;# 
   193  0395                     	;# 
   194  0396                     	;# 
   195  039A                     	;# 
   196  039C                     	;# 
   197  039D                     	;# 
   198  039E                     	;# 
   199  039F                     	;# 
   200  0415                     	;# 
   201  0416                     	;# 
   202  0417                     	;# 
   203  041C                     	;# 
   204  041D                     	;# 
   205  041E                     	;# 
   206  0FE4                     	;# 
   207  0FE5                     	;# 
   208  0FE6                     	;# 
   209  0FE7                     	;# 
   210  0FE8                     	;# 
   211  0FE9                     	;# 
   212  0FEA                     	;# 
   213  0FEB                     	;# 
   214  0FED                     	;# 
   215  0FEE                     	;# 
   216  0FEF                     	;# 
   217  0000                     	;# 
   218  0001                     	;# 
   219  0002                     	;# 
   220  0003                     	;# 
   221  0004                     	;# 
   222  0005                     	;# 
   223  0006                     	;# 
   224  0007                     	;# 
   225  0008                     	;# 
   226  0009                     	;# 
   227  000A                     	;# 
   228  000B                     	;# 
   229  000C                     	;# 
   230  000D                     	;# 
   231  0011                     	;# 
   232  0012                     	;# 
   233  0013                     	;# 
   234  0014                     	;# 
   235  0015                     	;# 
   236  0016                     	;# 
   237  0016                     	;# 
   238  0017                     	;# 
   239  0018                     	;# 
   240  0019                     	;# 
   241  001A                     	;# 
   242  001B                     	;# 
   243  001C                     	;# 
   244  001E                     	;# 
   245  001F                     	;# 
   246  008C                     	;# 
   247  008D                     	;# 
   248  0091                     	;# 
   249  0092                     	;# 
   250  0093                     	;# 
   251  0094                     	;# 
   252  0095                     	;# 
   253  0096                     	;# 
   254  0097                     	;# 
   255  0098                     	;# 
   256  0099                     	;# 
   257  009A                     	;# 
   258  009B                     	;# 
   259  009B                     	;# 
   260  009C                     	;# 
   261  009D                     	;# 
   262  009E                     	;# 
   263  010C                     	;# 
   264  010D                     	;# 
   265  0111                     	;# 
   266  0112                     	;# 
   267  0113                     	;# 
   268  0114                     	;# 
   269  0115                     	;# 
   270  0116                     	;# 
   271  0117                     	;# 
   272  0118                     	;# 
   273  0119                     	;# 
   274  011A                     	;# 
   275  011B                     	;# 
   276  011D                     	;# 
   277  011E                     	;# 
   278  018C                     	;# 
   279  018D                     	;# 
   280  0191                     	;# 
   281  0191                     	;# 
   282  0192                     	;# 
   283  0193                     	;# 
   284  0193                     	;# 
   285  0193                     	;# 
   286  0194                     	;# 
   287  0195                     	;# 
   288  0196                     	;# 
   289  0199                     	;# 
   290  019A                     	;# 
   291  019B                     	;# 
   292  019B                     	;# 
   293  019B                     	;# 
   294  019B                     	;# 
   295  019C                     	;# 
   296  019C                     	;# 
   297  019D                     	;# 
   298  019E                     	;# 
   299  019F                     	;# 
   300  020C                     	;# 
   301  020D                     	;# 
   302  0211                     	;# 
   303  0211                     	;# 
   304  0212                     	;# 
   305  0212                     	;# 
   306  0213                     	;# 
   307  0213                     	;# 
   308  0214                     	;# 
   309  0214                     	;# 
   310  0215                     	;# 
   311  0215                     	;# 
   312  0215                     	;# 
   313  0216                     	;# 
   314  0216                     	;# 
   315  0217                     	;# 
   316  0217                     	;# 
   317  0219                     	;# 
   318  021A                     	;# 
   319  021B                     	;# 
   320  021C                     	;# 
   321  021D                     	;# 
   322  021E                     	;# 
   323  021F                     	;# 
   324  0291                     	;# 
   325  0291                     	;# 
   326  0292                     	;# 
   327  0293                     	;# 
   328  0294                     	;# 
   329  0295                     	;# 
   330  0295                     	;# 
   331  0296                     	;# 
   332  0298                     	;# 
   333  0298                     	;# 
   334  0299                     	;# 
   335  029A                     	;# 
   336  029B                     	;# 
   337  029C                     	;# 
   338  029C                     	;# 
   339  029D                     	;# 
   340  029E                     	;# 
   341  029E                     	;# 
   342  0311                     	;# 
   343  0311                     	;# 
   344  0312                     	;# 
   345  0313                     	;# 
   346  0318                     	;# 
   347  0318                     	;# 
   348  0319                     	;# 
   349  031A                     	;# 
   350  0394                     	;# 
   351  0395                     	;# 
   352  0396                     	;# 
   353  039A                     	;# 
   354  039C                     	;# 
   355  039D                     	;# 
   356  039E                     	;# 
   357  039F                     	;# 
   358  0415                     	;# 
   359  0416                     	;# 
   360  0417                     	;# 
   361  041C                     	;# 
   362  041D                     	;# 
   363  041E                     	;# 
   364  0FE4                     	;# 
   365  0FE5                     	;# 
   366  0FE6                     	;# 
   367  0FE7                     	;# 
   368  0FE8                     	;# 
   369  0FE9                     	;# 
   370  0FEA                     	;# 
   371  0FEB                     	;# 
   372  0FED                     	;# 
   373  0FEE                     	;# 
   374  0FEF                     	;# 
   375  0000                     	;# 
   376  0001                     	;# 
   377  0002                     	;# 
   378  0003                     	;# 
   379  0004                     	;# 
   380  0005                     	;# 
   381  0006                     	;# 
   382  0007                     	;# 
   383  0008                     	;# 
   384  0009                     	;# 
   385  000A                     	;# 
   386  000B                     	;# 
   387  000C                     	;# 
   388  000D                     	;# 
   389  0011                     	;# 
   390  0012                     	;# 
   391  0013                     	;# 
   392  0014                     	;# 
   393  0015                     	;# 
   394  0016                     	;# 
   395  0016                     	;# 
   396  0017                     	;# 
   397  0018                     	;# 
   398  0019                     	;# 
   399  001A                     	;# 
   400  001B                     	;# 
   401  001C                     	;# 
   402  001E                     	;# 
   403  001F                     	;# 
   404  008C                     	;# 
   405  008D                     	;# 
   406  0091                     	;# 
   407  0092                     	;# 
   408  0093                     	;# 
   409  0094                     	;# 
   410  0095                     	;# 
   411  0096                     	;# 
   412  0097                     	;# 
   413  0098                     	;# 
   414  0099                     	;# 
   415  009A                     	;# 
   416  009B                     	;# 
   417  009B                     	;# 
   418  009C                     	;# 
   419  009D                     	;# 
   420  009E                     	;# 
   421  010C                     	;# 
   422  010D                     	;# 
   423  0111                     	;# 
   424  0112                     	;# 
   425  0113                     	;# 
   426  0114                     	;# 
   427  0115                     	;# 
   428  0116                     	;# 
   429  0117                     	;# 
   430  0118                     	;# 
   431  0119                     	;# 
   432  011A                     	;# 
   433  011B                     	;# 
   434  011D                     	;# 
   435  011E                     	;# 
   436  018C                     	;# 
   437  018D                     	;# 
   438  0191                     	;# 
   439  0191                     	;# 
   440  0192                     	;# 
   441  0193                     	;# 
   442  0193                     	;# 
   443  0193                     	;# 
   444  0194                     	;# 
   445  0195                     	;# 
   446  0196                     	;# 
   447  0199                     	;# 
   448  019A                     	;# 
   449  019B                     	;# 
   450  019B                     	;# 
   451  019B                     	;# 
   452  019B                     	;# 
   453  019C                     	;# 
   454  019C                     	;# 
   455  019D                     	;# 
   456  019E                     	;# 
   457  019F                     	;# 
   458  020C                     	;# 
   459  020D                     	;# 
   460  0211                     	;# 
   461  0211                     	;# 
   462  0212                     	;# 
   463  0212                     	;# 
   464  0213                     	;# 
   465  0213                     	;# 
   466  0214                     	;# 
   467  0214                     	;# 
   468  0215                     	;# 
   469  0215                     	;# 
   470  0215                     	;# 
   471  0216                     	;# 
   472  0216                     	;# 
   473  0217                     	;# 
   474  0217                     	;# 
   475  0219                     	;# 
   476  021A                     	;# 
   477  021B                     	;# 
   478  021C                     	;# 
   479  021D                     	;# 
   480  021E                     	;# 
   481  021F                     	;# 
   482  0291                     	;# 
   483  0291                     	;# 
   484  0292                     	;# 
   485  0293                     	;# 
   486  0294                     	;# 
   487  0295                     	;# 
   488  0295                     	;# 
   489  0296                     	;# 
   490  0298                     	;# 
   491  0298                     	;# 
   492  0299                     	;# 
   493  029A                     	;# 
   494  029B                     	;# 
   495  029C                     	;# 
   496  029C                     	;# 
   497  029D                     	;# 
   498  029E                     	;# 
   499  029E                     	;# 
   500  0311                     	;# 
   501  0311                     	;# 
   502  0312                     	;# 
   503  0313                     	;# 
   504  0318                     	;# 
   505  0318                     	;# 
   506  0319                     	;# 
   507  031A                     	;# 
   508  0394                     	;# 
   509  0395                     	;# 
   510  0396                     	;# 
   511  039A                     	;# 
   512  039C                     	;# 
   513  039D                     	;# 
   514  039E                     	;# 
   515  039F                     	;# 
   516  0415                     	;# 
   517  0416                     	;# 
   518  0417                     	;# 
   519  041C                     	;# 
   520  041D                     	;# 
   521  041E                     	;# 
   522  0FE4                     	;# 
   523  0FE5                     	;# 
   524  0FE6                     	;# 
   525  0FE7                     	;# 
   526  0FE8                     	;# 
   527  0FE9                     	;# 
   528  0FEA                     	;# 
   529  0FEB                     	;# 
   530  0FED                     	;# 
   531  0FEE                     	;# 
   532  0FEF                     	;# 
   533  001B                     _PR2	set	27
   534  001C                     _T2CON	set	28
   535  005F                     _GIE	set	95
   536  005E                     _PEIE	set	94
   537  00A0                     _SSP2IF	set	160
   538  006C                     _RB4	set	108
   539  008C                     _TRISA	set	140
   540  008D                     _TRISB	set	141
   541  0099                     _OSCCONbits	set	153
   542  04A0                     _SSP2IE	set	1184
   543  018D                     _ANSELB	set	397
   544  018C                     _ANSELA	set	396
   545  021E                     _SSP2CON2bits	set	542
   546  021D                     _SSP2CON1bits	set	541
   547  0219                     _SSP2BUF	set	537
   548  021B                     _SSP2MSK	set	539
   549  021F                     _SSP2CON3	set	543
   550  021C                     _SSP2STAT	set	540
   551  021A                     _SSP2ADD	set	538
   552  021E                     _SSP2CON2	set	542
   553  021D                     _SSP2CON1	set	541
   554  029E                     _CCPTMRS	set	670
   555  031A                     _CCP4CON	set	794
   556  0313                     _CCP3CON	set	787
   557  0318                     _CCPR4L	set	792
   558  0311                     _CCPR3L	set	785
   559  0416                     _PR4	set	1046
   560  0417                     _T4CON	set	1047
   561                           
   562                           	psect	cinit
   563  0014                     start_initialization:	
   564                           ; #config settings
   565                           
   566  0014                     __initialization:
   567                           
   568                           ; Clear objects allocated to BANK0
   569  0014  0020               	movlb	0	; select bank0
   570  0015  01E9               	clrf	__pbssBANK0& (0+127)
   571  0016  01EA               	clrf	(__pbssBANK0+1)& (0+127)
   572  0017  01EB               	clrf	(__pbssBANK0+2)& (0+127)
   573  0018  01EC               	clrf	(__pbssBANK0+3)& (0+127)
   574  0019  01ED               	clrf	(__pbssBANK0+4)& (0+127)
   575  001A  01EE               	clrf	(__pbssBANK0+5)& (0+127)
   576                           
   577                           ; Clear objects allocated to BANK1
   578  001B  0021               	movlb	1	; select bank1
   579  001C  01A0               	clrf	__pbssBANK1& (0+127)
   580  001D  01A1               	clrf	(__pbssBANK1+1)& (0+127)
   581  001E                     end_of_initialization:	
   582                           ;End of C runtime variable initialization code
   583                           
   584  001E                     __end_of__initialization:
   585  001E  107E               	bcf	int$flags,0	;clear compiler interrupt flag (level 1)
   586  001F  0020               	movlb	0
   587  0020  3186  2E8A         	ljmp	_main	;jump to C main() function
   588                           
   589                           	psect	bssBANK0
   590  0069                     __pbssBANK0:
   591  0069                     _a:
   592  0069                     	ds	2
   593  006B                     _duty:
   594  006B                     	ds	2
   595  006D                     _value:
   596  006D                     	ds	1
   597  006E                     _state:
   598  006E                     	ds	1
   599                           
   600                           	psect	bssBANK1
   601  00A0                     __pbssBANK1:
   602  00A0                     _b:
   603  00A0                     	ds	2
   604                           
   605                           	psect	cstackBANK1
   606  0000                     __pcstackBANK1:
   607  0000                     ??_i2c_slave_init:
   608  0000                     ??_main:	
   609                           ; 1 bytes @ 0x0
   610                           
   611                           
   612                           	psect	cstackCOMMON
   613  0070                     __pcstackCOMMON:	
   614                           ; 1 bytes @ 0x0
   615                           
   616  0070                     ?_i2c_slave_init:
   617  0070                     ?_main:	
   618                           ; 1 bytes @ 0x0
   619                           
   620  0070                     ?_i2c_state:	
   621                           ; 1 bytes @ 0x0
   622                           
   623  0070                     ?__isr:	
   624                           ; 1 bytes @ 0x0
   625                           
   626  0070                     ?__Umul8_16:	
   627                           ; 1 bytes @ 0x0
   628                           
   629  0070                     ?___xxtofl:	
   630                           ; 2 bytes @ 0x0
   631                           
   632  0070                     __Umul8_16@multiplicand:	
   633                           ; 4 bytes @ 0x0
   634                           
   635  0070                     ___xxtofl@val:	
   636                           ; 1 bytes @ 0x0
   637                           
   638                           
   639                           ; 4 bytes @ 0x0
   640  0070                     	ds	2
   641  0072                     ??__Umul8_16:
   642                           
   643                           ; 1 bytes @ 0x2
   644  0072                     	ds	2
   645  0074                     ??___xxtofl:
   646  0074                     __Umul8_16@product:	
   647                           ; 1 bytes @ 0x4
   648                           
   649                           
   650                           ; 2 bytes @ 0x4
   651  0074                     	ds	2
   652  0076                     __Umul8_16@word_mpld:
   653                           
   654                           ; 2 bytes @ 0x6
   655  0076                     	ds	2
   656  0078                     __Umul8_16@multiplier:
   657  0078                     ___xxtofl@sign:	
   658                           ; 1 bytes @ 0x8
   659                           
   660                           
   661                           ; 1 bytes @ 0x8
   662  0078                     	ds	1
   663  0079                     ___xxtofl@exp:
   664                           
   665                           ; 1 bytes @ 0x9
   666  0079                     	ds	1
   667  007A                     ___xxtofl@arg:
   668                           
   669                           ; 4 bytes @ 0xA
   670  007A                     	ds	4
   671  007E                     ??__isr:
   672                           
   673                           	psect	cstackBANK0
   674  0020                     __pcstackBANK0:	
   675                           ; 1 bytes @ 0xE
   676                           
   677  0020                     ?___fldiv:
   678  0020                     ___fldiv@a:	
   679                           ; 4 bytes @ 0x0
   680                           
   681                           
   682                           ; 4 bytes @ 0x0
   683  0020                     	ds	4
   684  0024                     ___fldiv@b:
   685                           
   686                           ; 4 bytes @ 0x4
   687  0024                     	ds	4
   688  0028                     ??___fldiv:
   689                           
   690                           ; 1 bytes @ 0x8
   691  0028                     	ds	5
   692  002D                     ___fldiv@rem:
   693                           
   694                           ; 4 bytes @ 0xD
   695  002D                     	ds	4
   696  0031                     ___fldiv@sign:
   697                           
   698                           ; 1 bytes @ 0x11
   699  0031                     	ds	1
   700  0032                     ___fldiv@new_exp:
   701                           
   702                           ; 2 bytes @ 0x12
   703  0032                     	ds	2
   704  0034                     ___fldiv@grs:
   705                           
   706                           ; 4 bytes @ 0x14
   707  0034                     	ds	4
   708  0038                     ___fldiv@bexp:
   709                           
   710                           ; 1 bytes @ 0x18
   711  0038                     	ds	1
   712  0039                     ___fldiv@aexp:
   713                           
   714                           ; 1 bytes @ 0x19
   715  0039                     	ds	1
   716  003A                     ?___flmul:
   717  003A                     ___flmul@b:	
   718                           ; 4 bytes @ 0x1A
   719                           
   720                           
   721                           ; 4 bytes @ 0x1A
   722  003A                     	ds	4
   723  003E                     ___flmul@a:
   724                           
   725                           ; 4 bytes @ 0x1E
   726  003E                     	ds	4
   727  0042                     ??___flmul:
   728                           
   729                           ; 1 bytes @ 0x22
   730  0042                     	ds	5
   731  0047                     ___flmul@sign:
   732                           
   733                           ; 1 bytes @ 0x27
   734  0047                     	ds	1
   735  0048                     ___flmul@grs:
   736                           
   737                           ; 4 bytes @ 0x28
   738  0048                     	ds	4
   739  004C                     ___flmul@aexp:
   740                           
   741                           ; 1 bytes @ 0x2C
   742  004C                     	ds	1
   743  004D                     ___flmul@bexp:
   744                           
   745                           ; 1 bytes @ 0x2D
   746  004D                     	ds	1
   747  004E                     ___flmul@prod:
   748                           
   749                           ; 4 bytes @ 0x2E
   750  004E                     	ds	4
   751  0052                     ___flmul@temp:
   752                           
   753                           ; 2 bytes @ 0x32
   754  0052                     	ds	2
   755  0054                     ?___fltol:
   756  0054                     ___fltol@f1:	
   757                           ; 4 bytes @ 0x34
   758                           
   759                           
   760                           ; 4 bytes @ 0x34
   761  0054                     	ds	4
   762  0058                     ??___fltol:
   763                           
   764                           ; 1 bytes @ 0x38
   765  0058                     	ds	5
   766  005D                     ___fltol@sign1:
   767                           
   768                           ; 1 bytes @ 0x3D
   769  005D                     	ds	1
   770  005E                     ___fltol@exp1:
   771                           
   772                           ; 1 bytes @ 0x3E
   773  005E                     	ds	1
   774  005F                     ?_i2c_receive_callback:
   775  005F                     i2c_receive_callback@data:	
   776                           ; 1 bytes @ 0x3F
   777                           
   778                           
   779                           ; 2 bytes @ 0x3F
   780  005F                     	ds	2
   781  0061                     ??_i2c_receive_callback:
   782                           
   783                           ; 1 bytes @ 0x41
   784  0061                     	ds	2
   785  0063                     _i2c_receive_callback$802:
   786                           
   787                           ; 4 bytes @ 0x43
   788  0063                     	ds	4
   789  0067                     ??_i2c_state:
   790                           
   791                           ; 1 bytes @ 0x47
   792  0067                     	ds	2
   793                           
   794                           	psect	maintext
   795  068A                     __pmaintext:	
   796 ;;
   797 ;;Main: autosize = 0, tempsize = 0, incstack = 0, save=0
   798 ;;
   799 ;; *************** function _main *****************
   800 ;; Defined at:
   801 ;;		line 32 in file "main.c"
   802 ;; Parameters:    Size  Location     Type
   803 ;;		None
   804 ;; Auto vars:     Size  Location     Type
   805 ;;		None
   806 ;; Return value:  Size  Location     Type
   807 ;;                  1    wreg      void 
   808 ;; Registers used:
   809 ;;		wreg, status,2, status,0, pclath, cstack
   810 ;; Tracked objects:
   811 ;;		On entry : B1F/0
   812 ;;		On exit  : 0/0
   813 ;;		Unchanged: 0/0
   814 ;; Data sizes:     COMMON   BANK0   BANK1   BANK2   BANK3   BANK4
   815 ;;      Params:         0       0       0       0       0       0
   816 ;;      Locals:         0       0       0       0       0       0
   817 ;;      Temps:          0       0       0       0       0       0
   818 ;;      Totals:         0       0       0       0       0       0
   819 ;;Total ram usage:        0 bytes
   820 ;; Hardware stack levels required when called: 6
   821 ;; This function calls:
   822 ;;		_i2c_slave_init
   823 ;; This function is called by:
   824 ;;		Startup code after reset
   825 ;; This function uses a non-reentrant model
   826 ;;
   827                           
   828  068A                     _main:	
   829                           ;psect for function _main
   830                           
   831  068A                     l1638:	
   832                           ;incstack = 0
   833                           ; Regs used in _main: [wreg+status,2+status,0+pclath+cstack]
   834                           
   835                           
   836                           ;main.c: 33:     OSCCONbits.IRCF=0b1110;
   837  068A  0021               	movlb	1	; select bank1
   838  068B  0819               	movf	25,w	;volatile
   839  068C  3987               	andlw	-121
   840  068D  3870               	iorlw	112
   841  068E  0099               	movwf	25	;volatile
   842                           
   843                           ;main.c: 34:     OSCCONbits.SCS=0b11;;
   844  068F  3003               	movlw	3
   845  0690  0499               	iorwf	25,f	;volatile
   846  0691                     l1640:
   847                           
   848                           ;main.c: 37:     TRISB=0b00100100;
   849  0691  3024               	movlw	36
   850  0692  008D               	movwf	13	;volatile
   851  0693                     l1642:
   852                           
   853                           ;main.c: 38:     TRISA=0x00;
   854  0693  018C               	clrf	12	;volatile
   855  0694                     l1644:
   856                           
   857                           ;main.c: 39:     ANSELA=0x00;
   858  0694  0023               	movlb	3	; select bank3
   859  0695  018C               	clrf	12	;volatile
   860  0696                     l1646:
   861                           
   862                           ;main.c: 40:     ANSELB=0x00;
   863  0696  018D               	clrf	13	;volatile
   864  0697                     l1648:
   865                           
   866                           ;main.c: 41:     RB4=0;
   867  0697  0020               	movlb	0	; select bank0
   868  0698  120D               	bcf	13,4	;volatile
   869  0699                     l1650:
   870                           
   871                           ;main.c: 44:     CCP3CON=0b00001100;
   872  0699  300C               	movlw	12
   873  069A  0026               	movlb	6	; select bank6
   874  069B  0093               	movwf	19	;volatile
   875  069C                     l1652:
   876                           
   877                           ;main.c: 45:     CCP4CON=0b00001100;
   878  069C  300C               	movlw	12
   879  069D  009A               	movwf	26	;volatile
   880  069E                     l1654:
   881                           
   882                           ;main.c: 46:     CCPTMRS=0b00010000;
   883  069E  3010               	movlw	16
   884  069F  0025               	movlb	5	; select bank5
   885  06A0  009E               	movwf	30	;volatile
   886  06A1                     l1656:
   887                           
   888                           ;main.c: 47:     T2CON=0b00000100;
   889  06A1  3004               	movlw	4
   890  06A2  0020               	movlb	0	; select bank0
   891  06A3  009C               	movwf	28	;volatile
   892  06A4                     l1658:
   893                           
   894                           ;main.c: 48:     T4CON=0b00000100;
   895  06A4  3004               	movlw	4
   896  06A5  0028               	movlb	8	; select bank8
   897  06A6  0097               	movwf	23	;volatile
   898  06A7                     l1660:
   899                           
   900                           ;main.c: 49:     PR2=255;
   901  06A7  30FF               	movlw	255
   902  06A8  0020               	movlb	0	; select bank0
   903  06A9  009B               	movwf	27	;volatile
   904  06AA                     l1662:
   905                           
   906                           ;main.c: 50:     PR4=255;
   907  06AA  30FF               	movlw	255
   908  06AB  0028               	movlb	8	; select bank8
   909  06AC  0096               	movwf	22	;volatile
   910  06AD                     l1664:
   911                           
   912                           ;main.c: 52:     i2c_slave_init();
   913  06AD  3186  26D6  3186   	fcall	_i2c_slave_init
   914  06B0                     l48:	
   915                           ;main.c: 54:     while(1){
   916                           
   917  06B0                     l49:	
   918                           ;main.c: 57:     }
   919                           
   920  06B0  2EB0               	goto	l48
   921  06B1  3180  2812         	ljmp	start
   922  06B3                     __end_of_main:
   923                           
   924                           	psect	text1
   925  06D6                     __ptext1:	
   926 ;; *************** function _i2c_slave_init *****************
   927 ;; Defined at:
   928 ;;		line 9 in file "16F1827.c"
   929 ;; Parameters:    Size  Location     Type
   930 ;;		None
   931 ;; Auto vars:     Size  Location     Type
   932 ;;		None
   933 ;; Return value:  Size  Location     Type
   934 ;;                  1    wreg      void 
   935 ;; Registers used:
   936 ;;		wreg, status,2
   937 ;; Tracked objects:
   938 ;;		On entry : 0/0
   939 ;;		On exit  : 0/0
   940 ;;		Unchanged: 0/0
   941 ;; Data sizes:     COMMON   BANK0   BANK1   BANK2   BANK3   BANK4
   942 ;;      Params:         0       0       0       0       0       0
   943 ;;      Locals:         0       0       0       0       0       0
   944 ;;      Temps:          0       0       0       0       0       0
   945 ;;      Totals:         0       0       0       0       0       0
   946 ;;Total ram usage:        0 bytes
   947 ;; Hardware stack levels used: 1
   948 ;; Hardware stack levels required when called: 5
   949 ;; This function calls:
   950 ;;		Nothing
   951 ;; This function is called by:
   952 ;;		_main
   953 ;; This function uses a non-reentrant model
   954 ;;
   955                           
   956  06D6                     _i2c_slave_init:	
   957                           ;psect for function _i2c_slave_init
   958                           
   959  06D6                     l1594:	
   960                           ;incstack = 0
   961                           ; Regs used in _i2c_slave_init: [wreg+status,2]
   962                           
   963  06D6  3026               	movlw	38
   964  06D7  0024               	movlb	4	; select bank4
   965  06D8  009D               	movwf	29	;volatile
   966  06D9  3001               	movlw	1
   967  06DA  009E               	movwf	30	;volatile
   968  06DB  3008               	movlw	8
   969  06DC  009A               	movwf	26	;volatile
   970  06DD  3080               	movlw	128
   971  06DE  009C               	movwf	28	;volatile
   972  06DF                     l1596:
   973  06DF  0020               	movlb	0	; select bank0
   974  06E0  1014               	bcf	20,0	;volatile
   975  06E1                     l1598:
   976  06E1  0021               	movlb	1	; select bank1
   977  06E2  1414               	bsf	20,0	;volatile
   978  06E3                     l1600:
   979  06E3  170B               	bsf	11,6	;volatile
   980  06E4                     l1602:
   981  06E4  178B               	bsf	11,7	;volatile
   982  06E5                     l1604:
   983  06E5  0024               	movlb	4	; select bank4
   984  06E6  019F               	clrf	31	;volatile
   985  06E7                     l1606:
   986  06E7  30FE               	movlw	254
   987  06E8  009B               	movwf	27	;volatile
   988  06E9                     l88:
   989  06E9  0008               	return
   990  06EA                     __end_of_i2c_slave_init:
   991                           
   992                           	psect	intentry
   993  0004                     __pintentry:	
   994 ;; *************** function __isr *****************
   995 ;; Defined at:
   996 ;;		line 44 in file "16F1827.c"
   997 ;; Parameters:    Size  Location     Type
   998 ;;		None
   999 ;; Auto vars:     Size  Location     Type
  1000 ;;		None
  1001 ;; Return value:  Size  Location     Type
  1002 ;;                  1    wreg      void 
  1003 ;; Registers used:
  1004 ;;		wreg, fsr0l, fsr0h, status,2, status,0, pclath, cstack
  1005 ;; Tracked objects:
  1006 ;;		On entry : 0/0
  1007 ;;		On exit  : 0/0
  1008 ;;		Unchanged: 0/0
  1009 ;; Data sizes:     COMMON   BANK0   BANK1   BANK2   BANK3   BANK4
  1010 ;;      Params:         0       0       0       0       0       0
  1011 ;;      Locals:         0       0       0       0       0       0
  1012 ;;      Temps:          0       0       0       0       0       0
  1013 ;;      Totals:         0       0       0       0       0       0
  1014 ;;Total ram usage:        0 bytes
  1015 ;; Hardware stack levels used: 1
  1016 ;; Hardware stack levels required when called: 4
  1017 ;; This function calls:
  1018 ;;		_i2c_state
  1019 ;; This function is called by:
  1020 ;;		Interrupt level 1
  1021 ;; This function uses a non-reentrant model
  1022 ;;
  1023                           
  1024  0004                     __isr:
  1025                           
  1026                           ;incstack = 0
  1027  0004  147E               	bsf	int$flags,0	;set compiler interrupt flag (level 1)
  1028                           
  1029                           ; Regs used in __isr: [wreg-fsr0h+status,2+status,0+pclath+cstack]
  1030  0005  3180               	pagesel	$
  1031  0006                     i1l1666:
  1032  0006  0020               	movlb	0	; select bank0
  1033  0007  1C14               	btfss	20,0	;volatile
  1034  0008  280A               	goto	u176_21
  1035  0009  280B               	goto	u176_20
  1036  000A                     u176_21:
  1037  000A  2810               	goto	i1l104
  1038  000B                     u176_20:
  1039  000B                     i1l1668:
  1040  000B  160D               	bsf	13,4	;volatile
  1041  000C  1014               	bcf	20,0	;volatile
  1042  000D                     i1l1670:
  1043  000D  3186  2643  3180   	fcall	_i2c_state
  1044  0010                     i1l104:
  1045  0010  107E               	bcf	int$flags,0	;clear compiler interrupt flag (level 1)
  1046  0011  0009               	retfie
  1047  0012                     __end_of__isr:
  1048                           
  1049                           	psect	text3
  1050  0643                     __ptext3:	
  1051 ;; *************** function _i2c_state *****************
  1052 ;; Defined at:
  1053 ;;		line 22 in file "16F1827.c"
  1054 ;; Parameters:    Size  Location     Type
  1055 ;;		None
  1056 ;; Auto vars:     Size  Location     Type
  1057 ;;		None
  1058 ;; Return value:  Size  Location     Type
  1059 ;;                  1    wreg      void 
  1060 ;; Registers used:
  1061 ;;		wreg, fsr0l, fsr0h, status,2, status,0, pclath, cstack
  1062 ;; Tracked objects:
  1063 ;;		On entry : 0/0
  1064 ;;		On exit  : 0/0
  1065 ;;		Unchanged: 0/0
  1066 ;; Data sizes:     COMMON   BANK0   BANK1   BANK2   BANK3   BANK4
  1067 ;;      Params:         0       0       0       0       0       0
  1068 ;;      Locals:         0       0       0       0       0       0
  1069 ;;      Temps:          0       2       0       0       0       0
  1070 ;;      Totals:         0       2       0       0       0       0
  1071 ;;Total ram usage:        2 bytes
  1072 ;; Hardware stack levels used: 1
  1073 ;; Hardware stack levels required when called: 3
  1074 ;; This function calls:
  1075 ;;		_i2c_receive_callback
  1076 ;; This function is called by:
  1077 ;;		__isr
  1078 ;; This function uses a non-reentrant model
  1079 ;;
  1080                           
  1081  0643                     _i2c_state:	
  1082                           ;psect for function _i2c_state
  1083                           
  1084  0643                     i1l1608:	
  1085                           ;incstack = 0
  1086                           ; Regs used in _i2c_state: [wreg-fsr0h+status,2+status,0+pclath+cstack]
  1087                           
  1088  0643  0024               	movlb	4	; select bank4
  1089  0644  081C               	movf	28,w	;volatile
  1090  0645  0020               	movlb	0	; select bank0
  1091  0646  00E7               	movwf	??_i2c_state
  1092  0647  0867               	movf	??_i2c_state,w
  1093  0648  00EE               	movwf	_state
  1094  0649                     i1l1610:
  1095  0649  086E               	movf	_state,w
  1096  064A  392D               	andlw	45
  1097  064B  00E7               	movwf	??_i2c_state
  1098  064C  0867               	movf	??_i2c_state,w
  1099  064D  00EE               	movwf	_state
  1100  064E  2E79               	goto	i1l1632
  1101  064F                     i1l1612:
  1102  064F  0024               	movlb	4	; select bank4
  1103  0650  0819               	movf	25,w	;volatile
  1104  0651  0020               	movlb	0	; select bank0
  1105  0652  00E7               	movwf	??_i2c_state
  1106  0653  0867               	movf	??_i2c_state,w
  1107  0654  00ED               	movwf	_value
  1108  0655                     i1l1614:
  1109  0655  160D               	bsf	13,4	;volatile
  1110  0656                     i1l1616:
  1111  0656  0024               	movlb	4	; select bank4
  1112  0657  1F1D               	btfss	29,6	;volatile
  1113  0658  2E5A               	goto	u173_21
  1114  0659  2E5B               	goto	u173_20
  1115  065A                     u173_21:
  1116  065A  2E5C               	goto	i1l93
  1117  065B                     u173_20:
  1118  065B                     i1l1618:
  1119  065B  131D               	bcf	29,6	;volatile
  1120  065C                     i1l93:
  1121  065C  1C1E               	btfss	30,0	;volatile
  1122  065D  2E5F               	goto	u174_21
  1123  065E  2E60               	goto	u174_20
  1124  065F                     u174_21:
  1125  065F  2E89               	goto	i1l98
  1126  0660                     u174_20:
  1127  0660                     i1l1620:
  1128  0660  161D               	bsf	29,4	;volatile
  1129  0661  2E89               	goto	i1l98
  1130  0662                     i1l1622:
  1131  0662  0024               	movlb	4	; select bank4
  1132  0663  0819               	movf	25,w	;volatile
  1133  0664  0020               	movlb	0	; select bank0
  1134  0665  00E7               	movwf	??_i2c_state
  1135  0666  0867               	movf	??_i2c_state,w
  1136  0667  00ED               	movwf	_value
  1137  0668                     i1l1624:
  1138  0668  086D               	movf	_value,w
  1139  0669  00E7               	movwf	??_i2c_state
  1140  066A  01E8               	clrf	??_i2c_state+1
  1141  066B  0867               	movf	??_i2c_state,w
  1142  066C  00DF               	movwf	i2c_receive_callback@data
  1143  066D  0868               	movf	??_i2c_state+1,w
  1144  066E  00E0               	movwf	i2c_receive_callback@data+1
  1145  066F  3184  242D  3186   	fcall	_i2c_receive_callback
  1146  0672                     i1l1626:
  1147  0672  0024               	movlb	4	; select bank4
  1148  0673  1C1E               	btfss	30,0	;volatile
  1149  0674  2E76               	goto	u175_21
  1150  0675  2E77               	goto	u175_20
  1151  0676                     u175_21:
  1152  0676  2E89               	goto	i1l98
  1153  0677                     u175_20:
  1154  0677                     i1l1628:
  1155  0677  161D               	bsf	29,4	;volatile
  1156  0678  2E89               	goto	i1l98
  1157  0679                     i1l1632:
  1158  0679  086E               	movf	_state,w
  1159  067A  00E7               	movwf	??_i2c_state
  1160  067B  01E8               	clrf	??_i2c_state+1
  1161                           
  1162                           ; Switch on 2 bytes has been partitioned into a top level switch of size 1, and 1 sub-sw
      +                          itches
  1163                           ; Switch size 1, requested type "simple"
  1164                           ; Number of cases is 1, Range of values is 0 to 0
  1165                           ; switch strategies available:
  1166                           ; Name         Instructions Cycles
  1167                           ; simple_byte            4     3 (average)
  1168                           ; direct_byte            8     6 (fixed)
  1169                           ; jumptable            260     6 (fixed)
  1170                           ;	Chosen strategy is simple_byte
  1171  067C  0868               	movf	??_i2c_state+1,w
  1172  067D  3A00               	xorlw	0	; case 0
  1173  067E  1903               	skipnz
  1174  067F  2E81               	goto	i1l1692
  1175  0680  2E89               	goto	i1l98
  1176  0681                     i1l1692:
  1177                           
  1178                           ; Switch size 1, requested type "simple"
  1179                           ; Number of cases is 2, Range of values is 9 to 41
  1180                           ; switch strategies available:
  1181                           ; Name         Instructions Cycles
  1182                           ; simple_byte            7     4 (average)
  1183                           ; direct_byte           75     9 (fixed)
  1184                           ; jumptable            263     9 (fixed)
  1185                           ;	Chosen strategy is simple_byte
  1186  0681  0867               	movf	??_i2c_state,w
  1187  0682  3A09               	xorlw	9	; case 9
  1188  0683  1903               	skipnz
  1189  0684  2E4F               	goto	i1l1612
  1190  0685  3A20               	xorlw	32	; case 41
  1191  0686  1903               	skipnz
  1192  0687  2E62               	goto	i1l1622
  1193  0688  2E89               	goto	i1l98
  1194  0689                     i1l98:
  1195  0689  0008               	return
  1196  068A                     __end_of_i2c_state:
  1197                           
  1198                           	psect	text4
  1199  042D                     __ptext4:	
  1200 ;; *************** function _i2c_receive_callback *****************
  1201 ;; Defined at:
  1202 ;;		line 14 in file "main.c"
  1203 ;; Parameters:    Size  Location     Type
  1204 ;;  data            2   63[BANK0 ] unsigned short 
  1205 ;; Auto vars:     Size  Location     Type
  1206 ;;		None
  1207 ;; Return value:  Size  Location     Type
  1208 ;;                  1    wreg      void 
  1209 ;; Registers used:
  1210 ;;		wreg, status,2, status,0, pclath, cstack
  1211 ;; Tracked objects:
  1212 ;;		On entry : 0/0
  1213 ;;		On exit  : 0/0
  1214 ;;		Unchanged: 0/0
  1215 ;; Data sizes:     COMMON   BANK0   BANK1   BANK2   BANK3   BANK4
  1216 ;;      Params:         0       2       0       0       0       0
  1217 ;;      Locals:         0       4       0       0       0       0
  1218 ;;      Temps:          0       2       0       0       0       0
  1219 ;;      Totals:         0       8       0       0       0       0
  1220 ;;Total ram usage:        8 bytes
  1221 ;; Hardware stack levels used: 1
  1222 ;; Hardware stack levels required when called: 2
  1223 ;; This function calls:
  1224 ;;		___fldiv
  1225 ;;		___flmul
  1226 ;;		___fltol
  1227 ;;		___xxtofl
  1228 ;; This function is called by:
  1229 ;;		_i2c_state
  1230 ;; This function uses a non-reentrant model
  1231 ;;
  1232                           
  1233  042D                     _i2c_receive_callback:	
  1234                           ;psect for function _i2c_receive_callback
  1235                           
  1236  042D                     i1l1576:	
  1237                           ;incstack = 0
  1238                           ; Regs used in _i2c_receive_callback: [wreg+status,2+status,0+pclath+cstack]
  1239                           
  1240                           
  1241                           ;main.c: 17:     a=(data>>7)&0b1;
  1242  042D  0020               	movlb	0	; select bank0
  1243  042E  0860               	movf	i2c_receive_callback@data+1,w
  1244  042F  00E2               	movwf	??_i2c_receive_callback+1
  1245  0430  085F               	movf	i2c_receive_callback@data,w
  1246  0431  00E1               	movwf	??_i2c_receive_callback
  1247  0432  3007               	movlw	7
  1248  0433                     u171_25:
  1249  0433  36E2               	lsrf	??_i2c_receive_callback+1,f
  1250  0434  0CE1               	rrf	??_i2c_receive_callback,f
  1251  0435  0B89               	decfsz	9,f
  1252  0436  2C33               	goto	u171_25
  1253  0437  3001               	movlw	1
  1254  0438  0561               	andwf	??_i2c_receive_callback,w
  1255  0439  00E9               	movwf	_a
  1256  043A  3000               	movlw	0
  1257  043B  0562               	andwf	??_i2c_receive_callback+1,w
  1258  043C  00EA               	movwf	_a+1
  1259                           
  1260                           ;main.c: 19:     if(a){
  1261  043D  0869               	movf	_a,w
  1262  043E  046A               	iorwf	_a+1,w
  1263  043F  1903               	btfsc	3,2
  1264  0440  2C42               	goto	u172_21
  1265  0441  2C43               	goto	u172_20
  1266  0442                     u172_21:
  1267  0442  2CB4               	goto	i1l1588
  1268  0443                     u172_20:
  1269  0443                     i1l1578:
  1270                           
  1271                           ;main.c: 20:         data=(~data)+0b1;
  1272  0443  09DF               	comf	i2c_receive_callback@data,f
  1273  0444  09E0               	comf	i2c_receive_callback@data+1,f
  1274  0445  0ADF               	incf	i2c_receive_callback@data,f
  1275  0446  1903               	skipnz
  1276  0447  0AE0               	incf	i2c_receive_callback@data+1,f
  1277  0448                     i1l1580:
  1278                           
  1279                           ;main.c: 21:         duty=((float)data/127)*4*256;
  1280  0448  085F               	movf	i2c_receive_callback@data,w
  1281  0449  00F0               	movwf	___xxtofl@val
  1282  044A  0860               	movf	i2c_receive_callback@data+1,w
  1283  044B  00F1               	movwf	___xxtofl@val+1
  1284  044C  01F2               	clrf	___xxtofl@val+2
  1285  044D  01F3               	clrf	___xxtofl@val+3
  1286  044E  3000               	movlw	0
  1287  044F  3185  2522  3184   	fcall	___xxtofl
  1288  0452  0873               	movf	?___xxtofl+3,w
  1289  0453  0020               	movlb	0	; select bank0
  1290  0454  00A7               	movwf	___fldiv@b+3
  1291  0455  0872               	movf	?___xxtofl+2,w
  1292  0456  00A6               	movwf	___fldiv@b+2
  1293  0457  0871               	movf	?___xxtofl+1,w
  1294  0458  00A5               	movwf	___fldiv@b+1
  1295  0459  0870               	movf	?___xxtofl,w
  1296  045A  00A4               	movwf	___fldiv@b
  1297  045B  3042               	movlw	66
  1298  045C  00A3               	movwf	___fldiv@a+3
  1299  045D  30FE               	movlw	254
  1300  045E  00A2               	movwf	___fldiv@a+2
  1301  045F  3000               	movlw	0
  1302  0460  00A1               	movwf	___fldiv@a+1
  1303  0461  3000               	movlw	0
  1304  0462  00A0               	movwf	___fldiv@a
  1305  0463  3182  2279  3184   	fcall	___fldiv
  1306  0466  0020               	movlb	0	; select bank0
  1307  0467  0823               	movf	?___fldiv+3,w
  1308  0468  00C1               	movwf	___flmul@a+3
  1309  0469  0822               	movf	?___fldiv+2,w
  1310  046A  00C0               	movwf	___flmul@a+2
  1311  046B  0821               	movf	?___fldiv+1,w
  1312  046C  00BF               	movwf	___flmul@a+1
  1313  046D  0820               	movf	?___fldiv,w
  1314  046E  00BE               	movwf	___flmul@a
  1315  046F  3040               	movlw	64
  1316  0470  00BD               	movwf	___flmul@b+3
  1317  0471  3080               	movlw	128
  1318  0472  00BC               	movwf	___flmul@b+2
  1319  0473  3000               	movlw	0
  1320  0474  00BB               	movwf	___flmul@b+1
  1321  0475  3000               	movlw	0
  1322  0476  00BA               	movwf	___flmul@b
  1323  0477  3180  2022  3184   	fcall	___flmul
  1324  047A  0020               	movlb	0	; select bank0
  1325  047B  083D               	movf	?___flmul+3,w
  1326  047C  00E6               	movwf	_i2c_receive_callback$802+3
  1327  047D  083C               	movf	?___flmul+2,w
  1328  047E  00E5               	movwf	_i2c_receive_callback$802+2
  1329  047F  083B               	movf	?___flmul+1,w
  1330  0480  00E4               	movwf	_i2c_receive_callback$802+1
  1331  0481  083A               	movf	?___flmul,w
  1332  0482  00E3               	movwf	_i2c_receive_callback$802
  1333  0483                     i1l1582:
  1334                           
  1335                           ;main.c: 21:         duty=((float)data/127)*4*256;
  1336  0483  0866               	movf	_i2c_receive_callback$802+3,w
  1337  0484  00C1               	movwf	___flmul@a+3
  1338  0485  0865               	movf	_i2c_receive_callback$802+2,w
  1339  0486  00C0               	movwf	___flmul@a+2
  1340  0487  0864               	movf	_i2c_receive_callback$802+1,w
  1341  0488  00BF               	movwf	___flmul@a+1
  1342  0489  0863               	movf	_i2c_receive_callback$802,w
  1343  048A  00BE               	movwf	___flmul@a
  1344  048B  3043               	movlw	67
  1345  048C  00BD               	movwf	___flmul@b+3
  1346  048D  3080               	movlw	128
  1347  048E  00BC               	movwf	___flmul@b+2
  1348  048F  3000               	movlw	0
  1349  0490  00BB               	movwf	___flmul@b+1
  1350  0491  3000               	movlw	0
  1351  0492  00BA               	movwf	___flmul@b
  1352  0493  3180  2022  3184   	fcall	___flmul
  1353  0496  0020               	movlb	0	; select bank0
  1354  0497  083D               	movf	?___flmul+3,w
  1355  0498  00D7               	movwf	___fltol@f1+3
  1356  0499  083C               	movf	?___flmul+2,w
  1357  049A  00D6               	movwf	___fltol@f1+2
  1358  049B  083B               	movf	?___flmul+1,w
  1359  049C  00D5               	movwf	___fltol@f1+1
  1360  049D  083A               	movf	?___flmul,w
  1361  049E  00D4               	movwf	___fltol@f1
  1362  049F  3185  25CE  3184   	fcall	___fltol
  1363  04A2  0020               	movlb	0	; select bank0
  1364  04A3  0855               	movf	?___fltol+1,w
  1365  04A4  00EC               	movwf	_duty+1
  1366  04A5  0854               	movf	?___fltol,w
  1367  04A6  00EB               	movwf	_duty
  1368  04A7                     i1l1584:
  1369                           
  1370                           ;main.c: 22:         CCPR3L=(duty&0b1111111100)>>2;
  1371  04A7  086C               	movf	_duty+1,w
  1372  04A8  00E2               	movwf	??_i2c_receive_callback+1
  1373  04A9  086B               	movf	_duty,w
  1374  04AA  00E1               	movwf	??_i2c_receive_callback
  1375  04AB  36E2               	lsrf	??_i2c_receive_callback+1,f
  1376  04AC  0CE1               	rrf	??_i2c_receive_callback,f
  1377  04AD  36E2               	lsrf	??_i2c_receive_callback+1,f
  1378  04AE  0CE1               	rrf	??_i2c_receive_callback,f
  1379  04AF  0861               	movf	??_i2c_receive_callback,w
  1380  04B0  0026               	movlb	6	; select bank6
  1381  04B1  0091               	movwf	17	;volatile
  1382  04B2                     i1l1586:
  1383                           
  1384                           ;main.c: 23:         CCPR4L=0x00;
  1385  04B2  0198               	clrf	24	;volatile
  1386                           
  1387                           ;main.c: 24:     }
  1388  04B3  2D21               	goto	i1l43
  1389  04B4                     i1l1588:
  1390                           
  1391                           ;main.c: 26:         duty=((float)data/127)*4*256;
  1392  04B4  085F               	movf	i2c_receive_callback@data,w
  1393  04B5  00F0               	movwf	___xxtofl@val
  1394  04B6  0860               	movf	i2c_receive_callback@data+1,w
  1395  04B7  00F1               	movwf	___xxtofl@val+1
  1396  04B8  01F2               	clrf	___xxtofl@val+2
  1397  04B9  01F3               	clrf	___xxtofl@val+3
  1398  04BA  3000               	movlw	0
  1399  04BB  3185  2522  3184   	fcall	___xxtofl
  1400  04BE  0873               	movf	?___xxtofl+3,w
  1401  04BF  0020               	movlb	0	; select bank0
  1402  04C0  00A7               	movwf	___fldiv@b+3
  1403  04C1  0872               	movf	?___xxtofl+2,w
  1404  04C2  00A6               	movwf	___fldiv@b+2
  1405  04C3  0871               	movf	?___xxtofl+1,w
  1406  04C4  00A5               	movwf	___fldiv@b+1
  1407  04C5  0870               	movf	?___xxtofl,w
  1408  04C6  00A4               	movwf	___fldiv@b
  1409  04C7  3042               	movlw	66
  1410  04C8  00A3               	movwf	___fldiv@a+3
  1411  04C9  30FE               	movlw	254
  1412  04CA  00A2               	movwf	___fldiv@a+2
  1413  04CB  3000               	movlw	0
  1414  04CC  00A1               	movwf	___fldiv@a+1
  1415  04CD  3000               	movlw	0
  1416  04CE  00A0               	movwf	___fldiv@a
  1417  04CF  3182  2279  3184   	fcall	___fldiv
  1418  04D2  0020               	movlb	0	; select bank0
  1419  04D3  0823               	movf	?___fldiv+3,w
  1420  04D4  00C1               	movwf	___flmul@a+3
  1421  04D5  0822               	movf	?___fldiv+2,w
  1422  04D6  00C0               	movwf	___flmul@a+2
  1423  04D7  0821               	movf	?___fldiv+1,w
  1424  04D8  00BF               	movwf	___flmul@a+1
  1425  04D9  0820               	movf	?___fldiv,w
  1426  04DA  00BE               	movwf	___flmul@a
  1427  04DB  3040               	movlw	64
  1428  04DC  00BD               	movwf	___flmul@b+3
  1429  04DD  3080               	movlw	128
  1430  04DE  00BC               	movwf	___flmul@b+2
  1431  04DF  3000               	movlw	0
  1432  04E0  00BB               	movwf	___flmul@b+1
  1433  04E1  3000               	movlw	0
  1434  04E2  00BA               	movwf	___flmul@b
  1435  04E3  3180  2022  3184   	fcall	___flmul
  1436  04E6  0020               	movlb	0	; select bank0
  1437  04E7  083D               	movf	?___flmul+3,w
  1438  04E8  00E6               	movwf	_i2c_receive_callback$802+3
  1439  04E9  083C               	movf	?___flmul+2,w
  1440  04EA  00E5               	movwf	_i2c_receive_callback$802+2
  1441  04EB  083B               	movf	?___flmul+1,w
  1442  04EC  00E4               	movwf	_i2c_receive_callback$802+1
  1443  04ED  083A               	movf	?___flmul,w
  1444  04EE  00E3               	movwf	_i2c_receive_callback$802
  1445                           
  1446                           ;main.c: 26:         duty=((float)data/127)*4*256;
  1447  04EF  0866               	movf	_i2c_receive_callback$802+3,w
  1448  04F0  00C1               	movwf	___flmul@a+3
  1449  04F1  0865               	movf	_i2c_receive_callback$802+2,w
  1450  04F2  00C0               	movwf	___flmul@a+2
  1451  04F3  0864               	movf	_i2c_receive_callback$802+1,w
  1452  04F4  00BF               	movwf	___flmul@a+1
  1453  04F5  0863               	movf	_i2c_receive_callback$802,w
  1454  04F6  00BE               	movwf	___flmul@a
  1455  04F7  3043               	movlw	67
  1456  04F8  00BD               	movwf	___flmul@b+3
  1457  04F9  3080               	movlw	128
  1458  04FA  00BC               	movwf	___flmul@b+2
  1459  04FB  3000               	movlw	0
  1460  04FC  00BB               	movwf	___flmul@b+1
  1461  04FD  3000               	movlw	0
  1462  04FE  00BA               	movwf	___flmul@b
  1463  04FF  3180  2022  3184   	fcall	___flmul
  1464  0502  0020               	movlb	0	; select bank0
  1465  0503  083D               	movf	?___flmul+3,w
  1466  0504  00D7               	movwf	___fltol@f1+3
  1467  0505  083C               	movf	?___flmul+2,w
  1468  0506  00D6               	movwf	___fltol@f1+2
  1469  0507  083B               	movf	?___flmul+1,w
  1470  0508  00D5               	movwf	___fltol@f1+1
  1471  0509  083A               	movf	?___flmul,w
  1472  050A  00D4               	movwf	___fltol@f1
  1473  050B  3185  25CE  3184   	fcall	___fltol
  1474  050E  0020               	movlb	0	; select bank0
  1475  050F  0855               	movf	?___fltol+1,w
  1476  0510  00EC               	movwf	_duty+1
  1477  0511  0854               	movf	?___fltol,w
  1478  0512  00EB               	movwf	_duty
  1479  0513                     i1l1590:
  1480                           
  1481                           ;main.c: 27:         CCPR3L=0x00;
  1482  0513  0026               	movlb	6	; select bank6
  1483  0514  0191               	clrf	17	;volatile
  1484  0515                     i1l1592:
  1485                           
  1486                           ;main.c: 28:         CCPR4L=(duty&0b1111111100)>>2;
  1487  0515  0020               	movlb	0	; select bank0
  1488  0516  086C               	movf	_duty+1,w
  1489  0517  00E2               	movwf	??_i2c_receive_callback+1
  1490  0518  086B               	movf	_duty,w
  1491  0519  00E1               	movwf	??_i2c_receive_callback
  1492  051A  36E2               	lsrf	??_i2c_receive_callback+1,f
  1493  051B  0CE1               	rrf	??_i2c_receive_callback,f
  1494  051C  36E2               	lsrf	??_i2c_receive_callback+1,f
  1495  051D  0CE1               	rrf	??_i2c_receive_callback,f
  1496  051E  0861               	movf	??_i2c_receive_callback,w
  1497  051F  0026               	movlb	6	; select bank6
  1498  0520  0098               	movwf	24	;volatile
  1499  0521                     i1l43:
  1500  0521  0008               	return
  1501  0522                     __end_of_i2c_receive_callback:
  1502                           
  1503                           	psect	text5
  1504  0522                     __ptext5:	
  1505 ;; *************** function ___xxtofl *****************
  1506 ;; Defined at:
  1507 ;;		line 10 in file "/opt/microchip/xc8/v2.35/pic/sources/c99/common/xxtofl.c"
  1508 ;; Parameters:    Size  Location     Type
  1509 ;;  sign            1    wreg     unsigned char 
  1510 ;;  val             4    0[COMMON] long 
  1511 ;; Auto vars:     Size  Location     Type
  1512 ;;  sign            1    8[COMMON] unsigned char 
  1513 ;;  arg             4   10[COMMON] unsigned long 
  1514 ;;  exp             1    9[COMMON] unsigned char 
  1515 ;; Return value:  Size  Location     Type
  1516 ;;                  4    0[COMMON] unsigned char 
  1517 ;; Registers used:
  1518 ;;		wreg, status,2, status,0
  1519 ;; Tracked objects:
  1520 ;;		On entry : 0/0
  1521 ;;		On exit  : 0/0
  1522 ;;		Unchanged: 0/0
  1523 ;; Data sizes:     COMMON   BANK0   BANK1   BANK2   BANK3   BANK4
  1524 ;;      Params:         4       0       0       0       0       0
  1525 ;;      Locals:         6       0       0       0       0       0
  1526 ;;      Temps:          4       0       0       0       0       0
  1527 ;;      Totals:        14       0       0       0       0       0
  1528 ;;Total ram usage:       14 bytes
  1529 ;; Hardware stack levels used: 1
  1530 ;; This function calls:
  1531 ;;		Nothing
  1532 ;; This function is called by:
  1533 ;;		_i2c_receive_callback
  1534 ;; This function uses a non-reentrant model
  1535 ;;
  1536                           
  1537  0522                     ___xxtofl:	
  1538                           ;psect for function ___xxtofl
  1539                           
  1540                           
  1541                           ;incstack = 0
  1542                           ; Regs used in ___xxtofl: [wreg+status,2+status,0]
  1543                           ;___xxtofl@sign stored from wreg
  1544  0522  00F8               	movwf	___xxtofl@sign
  1545  0523                     i1l1532:
  1546  0523  0878               	movf	___xxtofl@sign,w
  1547  0524  1903               	btfsc	3,2
  1548  0525  2D27               	goto	u157_21
  1549  0526  2D28               	goto	u157_20
  1550  0527                     u157_21:
  1551  0527  2D3C               	goto	i1l1538
  1552  0528                     u157_20:
  1553  0528                     i1l1534:
  1554  0528  1FF3               	btfss	___xxtofl@val+3,7
  1555  0529  2D2B               	goto	u158_21
  1556  052A  2D2C               	goto	u158_20
  1557  052B                     u158_21:
  1558  052B  2D3C               	goto	i1l1538
  1559  052C                     u158_20:
  1560  052C                     i1l1536:
  1561  052C  0970               	comf	___xxtofl@val,w
  1562  052D  00FA               	movwf	___xxtofl@arg
  1563  052E  0971               	comf	___xxtofl@val+1,w
  1564  052F  00FB               	movwf	___xxtofl@arg+1
  1565  0530  0972               	comf	___xxtofl@val+2,w
  1566  0531  00FC               	movwf	___xxtofl@arg+2
  1567  0532  0973               	comf	___xxtofl@val+3,w
  1568  0533  00FD               	movwf	___xxtofl@arg+3
  1569  0534  0AFA               	incf	___xxtofl@arg,f
  1570  0535  1903               	skipnz
  1571  0536  0AFB               	incf	___xxtofl@arg+1,f
  1572  0537  1903               	skipnz
  1573  0538  0AFC               	incf	___xxtofl@arg+2,f
  1574  0539  1903               	skipnz
  1575  053A  0AFD               	incf	___xxtofl@arg+3,f
  1576  053B  2D44               	goto	i1l695
  1577  053C                     i1l1538:
  1578  053C  0873               	movf	___xxtofl@val+3,w
  1579  053D  00FD               	movwf	___xxtofl@arg+3
  1580  053E  0872               	movf	___xxtofl@val+2,w
  1581  053F  00FC               	movwf	___xxtofl@arg+2
  1582  0540  0871               	movf	___xxtofl@val+1,w
  1583  0541  00FB               	movwf	___xxtofl@arg+1
  1584  0542  0870               	movf	___xxtofl@val,w
  1585  0543  00FA               	movwf	___xxtofl@arg
  1586  0544                     i1l695:
  1587  0544  0873               	movf	___xxtofl@val+3,w
  1588  0545  0472               	iorwf	___xxtofl@val+2,w
  1589  0546  0471               	iorwf	___xxtofl@val+1,w
  1590  0547  0470               	iorwf	___xxtofl@val,w
  1591  0548  1D03               	skipz
  1592  0549  2D4B               	goto	u159_21
  1593  054A  2D4C               	goto	u159_20
  1594  054B                     u159_21:
  1595  054B  2D55               	goto	i1l1544
  1596  054C                     u159_20:
  1597  054C                     i1l1540:
  1598  054C  3000               	movlw	0
  1599  054D  00F3               	movwf	?___xxtofl+3
  1600  054E  3000               	movlw	0
  1601  054F  00F2               	movwf	?___xxtofl+2
  1602  0550  3000               	movlw	0
  1603  0551  00F1               	movwf	?___xxtofl+1
  1604  0552  3000               	movlw	0
  1605  0553  00F0               	movwf	?___xxtofl
  1606  0554  2DCD               	goto	i1l697
  1607  0555                     i1l1544:
  1608  0555  3096               	movlw	150
  1609  0556  00F4               	movwf	??___xxtofl
  1610  0557  0874               	movf	??___xxtofl,w
  1611  0558  00F9               	movwf	___xxtofl@exp
  1612  0559  2D65               	goto	i1l1548
  1613  055A                     i1l1546:
  1614  055A  3001               	movlw	1
  1615  055B  00F4               	movwf	??___xxtofl
  1616  055C  0874               	movf	??___xxtofl,w
  1617  055D  07F9               	addwf	___xxtofl@exp,f
  1618  055E  3001               	movlw	1
  1619  055F                     u160_25:
  1620  055F  36FD               	lsrf	___xxtofl@arg+3,f
  1621  0560  0CFC               	rrf	___xxtofl@arg+2,f
  1622  0561  0CFB               	rrf	___xxtofl@arg+1,f
  1623  0562  0CFA               	rrf	___xxtofl@arg,f
  1624  0563  0B89               	decfsz	9,f
  1625  0564  2D5F               	goto	u160_25
  1626  0565                     i1l1548:
  1627  0565  30FE               	movlw	254
  1628  0566  057D               	andwf	___xxtofl@arg+3,w
  1629  0567  1D03               	btfss	3,2
  1630  0568  2D6A               	goto	u161_21
  1631  0569  2D6B               	goto	u161_20
  1632  056A                     u161_21:
  1633  056A  2D5A               	goto	i1l1546
  1634  056B                     u161_20:
  1635  056B  2D7F               	goto	i1l701
  1636  056C                     i1l1550:
  1637  056C  3001               	movlw	1
  1638  056D  00F4               	movwf	??___xxtofl
  1639  056E  0874               	movf	??___xxtofl,w
  1640  056F  07F9               	addwf	___xxtofl@exp,f
  1641  0570                     i1l1552:
  1642  0570  3001               	movlw	1
  1643  0571  07FA               	addwf	___xxtofl@arg,f
  1644  0572  3000               	movlw	0
  1645  0573  3DFB               	addwfc	___xxtofl@arg+1,f
  1646  0574  3000               	movlw	0
  1647  0575  3DFC               	addwfc	___xxtofl@arg+2,f
  1648  0576  3000               	movlw	0
  1649  0577  3DFD               	addwfc	___xxtofl@arg+3,f
  1650  0578                     i1l1554:
  1651  0578  3001               	movlw	1
  1652  0579                     u162_25:
  1653  0579  36FD               	lsrf	___xxtofl@arg+3,f
  1654  057A  0CFC               	rrf	___xxtofl@arg+2,f
  1655  057B  0CFB               	rrf	___xxtofl@arg+1,f
  1656  057C  0CFA               	rrf	___xxtofl@arg,f
  1657  057D  0B89               	decfsz	9,f
  1658  057E  2D79               	goto	u162_25
  1659  057F                     i1l701:
  1660  057F  30FF               	movlw	255
  1661  0580  057D               	andwf	___xxtofl@arg+3,w
  1662  0581  1D03               	btfss	3,2
  1663  0582  2D84               	goto	u163_21
  1664  0583  2D85               	goto	u163_20
  1665  0584                     u163_21:
  1666  0584  2D6C               	goto	i1l1550
  1667  0585                     u163_20:
  1668  0585  2D8F               	goto	i1l1558
  1669  0586                     i1l1556:
  1670  0586  3001               	movlw	1
  1671  0587  02F9               	subwf	___xxtofl@exp,f
  1672  0588  3001               	movlw	1
  1673  0589                     u164_25:
  1674  0589  35FA               	lslf	___xxtofl@arg,f
  1675  058A  0DFB               	rlf	___xxtofl@arg+1,f
  1676  058B  0DFC               	rlf	___xxtofl@arg+2,f
  1677  058C  0DFD               	rlf	___xxtofl@arg+3,f
  1678  058D  0B89               	decfsz	9,f
  1679  058E  2D89               	goto	u164_25
  1680  058F                     i1l1558:
  1681  058F  1BFC               	btfsc	___xxtofl@arg+2,7
  1682  0590  2D92               	goto	u165_21
  1683  0591  2D93               	goto	u165_20
  1684  0592                     u165_21:
  1685  0592  2D99               	goto	i1l708
  1686  0593                     u165_20:
  1687  0593                     i1l1560:
  1688  0593  3002               	movlw	2
  1689  0594  0279               	subwf	___xxtofl@exp,w
  1690  0595  1803               	skipnc
  1691  0596  2D98               	goto	u166_21
  1692  0597  2D99               	goto	u166_20
  1693  0598                     u166_21:
  1694  0598  2D86               	goto	i1l1556
  1695  0599                     u166_20:
  1696  0599                     i1l708:
  1697  0599  1879               	btfsc	___xxtofl@exp,0
  1698  059A  2D9C               	goto	u167_21
  1699  059B  2D9D               	goto	u167_20
  1700  059C                     u167_21:
  1701  059C  2DA5               	goto	i1l709
  1702  059D                     u167_20:
  1703  059D                     i1l1562:
  1704  059D  30FF               	movlw	255
  1705  059E  05FA               	andwf	___xxtofl@arg,f
  1706  059F  30FF               	movlw	255
  1707  05A0  05FB               	andwf	___xxtofl@arg+1,f
  1708  05A1  307F               	movlw	127
  1709  05A2  05FC               	andwf	___xxtofl@arg+2,f
  1710  05A3  30FF               	movlw	255
  1711  05A4  05FD               	andwf	___xxtofl@arg+3,f
  1712  05A5                     i1l709:
  1713  05A5  1003               	clrc
  1714  05A6  0CF9               	rrf	___xxtofl@exp,f
  1715  05A7                     i1l1564:
  1716  05A7  0879               	movf	___xxtofl@exp,w
  1717  05A8  00F4               	movwf	??___xxtofl
  1718  05A9  01F5               	clrf	??___xxtofl+1
  1719  05AA  01F6               	clrf	??___xxtofl+2
  1720  05AB  01F7               	clrf	??___xxtofl+3
  1721  05AC  3018               	movlw	24
  1722  05AD                     u168_25:
  1723  05AD  35F4               	lslf	??___xxtofl,f
  1724  05AE  0DF5               	rlf	??___xxtofl+1,f
  1725  05AF  0DF6               	rlf	??___xxtofl+2,f
  1726  05B0  0DF7               	rlf	??___xxtofl+3,f
  1727  05B1                     u168_20:
  1728  05B1  0B89               	decfsz	9,f
  1729  05B2  2DAD               	goto	u168_25
  1730  05B3  0874               	movf	??___xxtofl,w
  1731  05B4  04FA               	iorwf	___xxtofl@arg,f
  1732  05B5  0875               	movf	??___xxtofl+1,w
  1733  05B6  04FB               	iorwf	___xxtofl@arg+1,f
  1734  05B7  0876               	movf	??___xxtofl+2,w
  1735  05B8  04FC               	iorwf	___xxtofl@arg+2,f
  1736  05B9  0877               	movf	??___xxtofl+3,w
  1737  05BA  04FD               	iorwf	___xxtofl@arg+3,f
  1738  05BB                     i1l1566:
  1739  05BB  0878               	movf	___xxtofl@sign,w
  1740  05BC  1903               	btfsc	3,2
  1741  05BD  2DBF               	goto	u169_21
  1742  05BE  2DC0               	goto	u169_20
  1743  05BF                     u169_21:
  1744  05BF  2DC5               	goto	i1l1572
  1745  05C0                     u169_20:
  1746  05C0                     i1l1568:
  1747  05C0  1FF3               	btfss	___xxtofl@val+3,7
  1748  05C1  2DC3               	goto	u170_21
  1749  05C2  2DC4               	goto	u170_20
  1750  05C3                     u170_21:
  1751  05C3  2DC5               	goto	i1l1572
  1752  05C4                     u170_20:
  1753  05C4                     i1l1570:
  1754  05C4  17FD               	bsf	___xxtofl@arg+3,7
  1755  05C5                     i1l1572:
  1756  05C5  087D               	movf	___xxtofl@arg+3,w
  1757  05C6  00F3               	movwf	?___xxtofl+3
  1758  05C7  087C               	movf	___xxtofl@arg+2,w
  1759  05C8  00F2               	movwf	?___xxtofl+2
  1760  05C9  087B               	movf	___xxtofl@arg+1,w
  1761  05CA  00F1               	movwf	?___xxtofl+1
  1762  05CB  087A               	movf	___xxtofl@arg,w
  1763  05CC  00F0               	movwf	?___xxtofl
  1764  05CD                     i1l697:
  1765  05CD  0008               	return
  1766  05CE                     __end_of___xxtofl:
  1767                           
  1768                           	psect	text6
  1769  05CE                     __ptext6:	
  1770 ;; *************** function ___fltol *****************
  1771 ;; Defined at:
  1772 ;;		line 43 in file "/opt/microchip/xc8/v2.35/pic/sources/c99/common/fltol.c"
  1773 ;; Parameters:    Size  Location     Type
  1774 ;;  f1              4   52[BANK0 ] unsigned char 
  1775 ;; Auto vars:     Size  Location     Type
  1776 ;;  exp1            1   62[BANK0 ] unsigned char 
  1777 ;;  sign1           1   61[BANK0 ] unsigned char 
  1778 ;; Return value:  Size  Location     Type
  1779 ;;                  4   52[BANK0 ] long 
  1780 ;; Registers used:
  1781 ;;		wreg, status,2, status,0
  1782 ;; Tracked objects:
  1783 ;;		On entry : 0/0
  1784 ;;		On exit  : 0/0
  1785 ;;		Unchanged: 0/0
  1786 ;; Data sizes:     COMMON   BANK0   BANK1   BANK2   BANK3   BANK4
  1787 ;;      Params:         0       4       0       0       0       0
  1788 ;;      Locals:         0       2       0       0       0       0
  1789 ;;      Temps:          0       5       0       0       0       0
  1790 ;;      Totals:         0      11       0       0       0       0
  1791 ;;Total ram usage:       11 bytes
  1792 ;; Hardware stack levels used: 1
  1793 ;; This function calls:
  1794 ;;		Nothing
  1795 ;; This function is called by:
  1796 ;;		_i2c_receive_callback
  1797 ;; This function uses a non-reentrant model
  1798 ;;
  1799                           
  1800  05CE                     ___fltol:	
  1801                           ;psect for function ___fltol
  1802                           
  1803  05CE                     i1l1216:	
  1804                           ;incstack = 0
  1805                           ; Regs used in ___fltol: [wreg+status,2+status,0]
  1806                           
  1807  05CE  1003               	clrc
  1808  05CF  0020               	movlb	0	; select bank0
  1809  05D0  0D56               	rlf	___fltol@f1+2,w
  1810  05D1  0D57               	rlf	___fltol@f1+3,w
  1811  05D2  00D8               	movwf	??___fltol
  1812  05D3  0858               	movf	??___fltol,w
  1813  05D4  00DE               	movwf	___fltol@exp1
  1814  05D5  085E               	movf	___fltol@exp1,w
  1815  05D6  1D03               	btfss	3,2
  1816  05D7  2DD9               	goto	u92_21
  1817  05D8  2DDA               	goto	u92_20
  1818  05D9                     u92_21:
  1819  05D9  2DE3               	goto	i1l1222
  1820  05DA                     u92_20:
  1821  05DA                     i1l1218:
  1822  05DA  3000               	movlw	0
  1823  05DB  00D7               	movwf	?___fltol+3
  1824  05DC  3000               	movlw	0
  1825  05DD  00D6               	movwf	?___fltol+2
  1826  05DE  3000               	movlw	0
  1827  05DF  00D5               	movwf	?___fltol+1
  1828  05E0  3000               	movlw	0
  1829  05E1  00D4               	movwf	?___fltol
  1830  05E2  2E42               	goto	i1l448
  1831  05E3                     i1l1222:
  1832  05E3  0854               	movf	___fltol@f1,w
  1833  05E4  00D8               	movwf	??___fltol
  1834  05E5  0855               	movf	___fltol@f1+1,w
  1835  05E6  00D9               	movwf	??___fltol+1
  1836  05E7  0856               	movf	___fltol@f1+2,w
  1837  05E8  00DA               	movwf	??___fltol+2
  1838  05E9  0857               	movf	___fltol@f1+3,w
  1839  05EA  00DB               	movwf	??___fltol+3
  1840  05EB  301F               	movlw	31
  1841  05EC                     u93_25:
  1842  05EC  36DB               	lsrf	??___fltol+3,f
  1843  05ED  0CDA               	rrf	??___fltol+2,f
  1844  05EE  0CD9               	rrf	??___fltol+1,f
  1845  05EF  0CD8               	rrf	??___fltol,f
  1846  05F0                     u93_20:
  1847  05F0  0B89               	decfsz	9,f
  1848  05F1  2DEC               	goto	u93_25
  1849  05F2  0858               	movf	??___fltol,w
  1850  05F3  00DC               	movwf	??___fltol+4
  1851  05F4  085C               	movf	??___fltol+4,w
  1852  05F5  00DD               	movwf	___fltol@sign1
  1853  05F6                     i1l1224:
  1854  05F6  17D6               	bsf	___fltol@f1+2,7
  1855  05F7                     i1l1226:
  1856  05F7  30FF               	movlw	255
  1857  05F8  05D4               	andwf	___fltol@f1,f
  1858  05F9  30FF               	movlw	255
  1859  05FA  05D5               	andwf	___fltol@f1+1,f
  1860  05FB  30FF               	movlw	255
  1861  05FC  05D6               	andwf	___fltol@f1+2,f
  1862  05FD  3000               	movlw	0
  1863  05FE  05D7               	andwf	___fltol@f1+3,f
  1864  05FF                     i1l1228:
  1865  05FF  3096               	movlw	150
  1866  0600  02DE               	subwf	___fltol@exp1,f
  1867  0601                     i1l1230:
  1868  0601  1FDE               	btfss	___fltol@exp1,7
  1869  0602  2E04               	goto	u94_21
  1870  0603  2E05               	goto	u94_20
  1871  0604                     u94_21:
  1872  0604  2E1D               	goto	i1l1240
  1873  0605                     u94_20:
  1874  0605                     i1l1232:
  1875  0605  085E               	movf	___fltol@exp1,w
  1876  0606  3A80               	xorlw	128
  1877  0607  3E97               	addlw	151
  1878  0608  1803               	skipnc
  1879  0609  2E0B               	goto	u95_21
  1880  060A  2E0C               	goto	u95_20
  1881  060B                     u95_21:
  1882  060B  2E0D               	goto	i1l1238
  1883  060C                     u95_20:
  1884  060C  2DDA               	goto	i1l1218
  1885  060D                     i1l1238:
  1886  060D  3001               	movlw	1
  1887  060E                     u96_25:
  1888  060E  36D7               	lsrf	___fltol@f1+3,f
  1889  060F  0CD6               	rrf	___fltol@f1+2,f
  1890  0610  0CD5               	rrf	___fltol@f1+1,f
  1891  0611  0CD4               	rrf	___fltol@f1,f
  1892  0612  0B89               	decfsz	9,f
  1893  0613  2E0E               	goto	u96_25
  1894  0614  3001               	movlw	1
  1895  0615  00D8               	movwf	??___fltol
  1896  0616  0858               	movf	??___fltol,w
  1897  0617  07DE               	addwf	___fltol@exp1,f
  1898  0618  1D03               	btfss	3,2
  1899  0619  2E1B               	goto	u97_21
  1900  061A  2E1C               	goto	u97_20
  1901  061B                     u97_21:
  1902  061B  2E0D               	goto	i1l1238
  1903  061C                     u97_20:
  1904  061C  2E32               	goto	i1l1248
  1905  061D                     i1l1240:
  1906  061D  3020               	movlw	32
  1907  061E  025E               	subwf	___fltol@exp1,w
  1908  061F  1C03               	skipc
  1909  0620  2E22               	goto	u98_21
  1910  0621  2E23               	goto	u98_20
  1911  0622                     u98_21:
  1912  0622  2E2D               	goto	i1l455
  1913  0623                     u98_20:
  1914  0623  2DDA               	goto	i1l1218
  1915  0624                     i1l1246:
  1916  0624  3001               	movlw	1
  1917  0625                     u99_25:
  1918  0625  35D4               	lslf	___fltol@f1,f
  1919  0626  0DD5               	rlf	___fltol@f1+1,f
  1920  0627  0DD6               	rlf	___fltol@f1+2,f
  1921  0628  0DD7               	rlf	___fltol@f1+3,f
  1922  0629  0B89               	decfsz	9,f
  1923  062A  2E25               	goto	u99_25
  1924  062B  3001               	movlw	1
  1925  062C  02DE               	subwf	___fltol@exp1,f
  1926  062D                     i1l455:
  1927  062D  085E               	movf	___fltol@exp1,w
  1928  062E  1D03               	btfss	3,2
  1929  062F  2E31               	goto	u100_21
  1930  0630  2E32               	goto	u100_20
  1931  0631                     u100_21:
  1932  0631  2E24               	goto	i1l1246
  1933  0632                     u100_20:
  1934  0632                     i1l1248:
  1935  0632  085D               	movf	___fltol@sign1,w
  1936  0633  1903               	btfsc	3,2
  1937  0634  2E36               	goto	u101_21
  1938  0635  2E37               	goto	u101_20
  1939  0636                     u101_21:
  1940  0636  2E42               	goto	i1l458
  1941  0637                     u101_20:
  1942  0637                     i1l1250:
  1943  0637  09D4               	comf	___fltol@f1,f
  1944  0638  09D5               	comf	___fltol@f1+1,f
  1945  0639  09D6               	comf	___fltol@f1+2,f
  1946  063A  09D7               	comf	___fltol@f1+3,f
  1947  063B  0AD4               	incf	___fltol@f1,f
  1948  063C  1903               	skipnz
  1949  063D  0AD5               	incf	___fltol@f1+1,f
  1950  063E  1903               	skipnz
  1951  063F  0AD6               	incf	___fltol@f1+2,f
  1952  0640  1903               	skipnz
  1953  0641  0AD7               	incf	___fltol@f1+3,f
  1954  0642                     i1l458:
  1955  0642                     i1l448:
  1956  0642  0008               	return
  1957  0643                     __end_of___fltol:
  1958                           
  1959                           	psect	text7
  1960  0022                     __ptext7:	
  1961 ;; *************** function ___flmul *****************
  1962 ;; Defined at:
  1963 ;;		line 8 in file "/opt/microchip/xc8/v2.35/pic/sources/c99/common/sprcmul.c"
  1964 ;; Parameters:    Size  Location     Type
  1965 ;;  b               4   26[BANK0 ] long 
  1966 ;;  a               4   30[BANK0 ] long 
  1967 ;; Auto vars:     Size  Location     Type
  1968 ;;  prod            4   46[BANK0 ] struct .
  1969 ;;  grs             4   40[BANK0 ] unsigned long 
  1970 ;;  temp            2   50[BANK0 ] struct .
  1971 ;;  bexp            1   45[BANK0 ] unsigned char 
  1972 ;;  aexp            1   44[BANK0 ] unsigned char 
  1973 ;;  sign            1   39[BANK0 ] unsigned char 
  1974 ;; Return value:  Size  Location     Type
  1975 ;;                  4   26[BANK0 ] unsigned char 
  1976 ;; Registers used:
  1977 ;;		wreg, status,2, status,0, pclath, cstack
  1978 ;; Tracked objects:
  1979 ;;		On entry : 0/0
  1980 ;;		On exit  : 0/0
  1981 ;;		Unchanged: 0/0
  1982 ;; Data sizes:     COMMON   BANK0   BANK1   BANK2   BANK3   BANK4
  1983 ;;      Params:         0       8       0       0       0       0
  1984 ;;      Locals:         0      13       0       0       0       0
  1985 ;;      Temps:          0       5       0       0       0       0
  1986 ;;      Totals:         0      26       0       0       0       0
  1987 ;;Total ram usage:       26 bytes
  1988 ;; Hardware stack levels used: 1
  1989 ;; Hardware stack levels required when called: 1
  1990 ;; This function calls:
  1991 ;;		__Umul8_16
  1992 ;; This function is called by:
  1993 ;;		_i2c_receive_callback
  1994 ;; This function uses a non-reentrant model
  1995 ;;
  1996                           
  1997  0022                     ___flmul:	
  1998                           ;psect for function ___flmul
  1999                           
  2000  0022                     i1l1392:	
  2001                           ;incstack = 0
  2002                           ; Regs used in ___flmul: [wreg+status,2+status,0+pclath+cstack]
  2003                           
  2004  0022  0020               	movlb	0	; select bank0
  2005  0023  083D               	movf	___flmul@b+3,w
  2006  0024  3980               	andlw	128
  2007  0025  00C2               	movwf	??___flmul
  2008  0026  0842               	movf	??___flmul,w
  2009  0027  00C7               	movwf	___flmul@sign
  2010  0028                     i1l1394:
  2011  0028  353D               	lslf	___flmul@b+3,w
  2012  0029  00C2               	movwf	??___flmul
  2013  002A  0842               	movf	??___flmul,w
  2014  002B  00CD               	movwf	___flmul@bexp
  2015  002C                     i1l1396:
  2016  002C  1FBC               	btfss	___flmul@b+2,7
  2017  002D  282F               	goto	u131_21
  2018  002E  2830               	goto	u131_20
  2019  002F                     u131_21:
  2020  002F  2831               	goto	i1l1400
  2021  0030                     u131_20:
  2022  0030                     i1l1398:
  2023  0030  144D               	bsf	___flmul@bexp,0
  2024  0031                     i1l1400:
  2025  0031  084D               	movf	___flmul@bexp,w
  2026  0032  1903               	btfsc	3,2
  2027  0033  2835               	goto	u132_21
  2028  0034  2836               	goto	u132_20
  2029  0035                     u132_21:
  2030  0035  2845               	goto	i1l1408
  2031  0036                     u132_20:
  2032  0036                     i1l1402:
  2033  0036  0A4D               	incf	___flmul@bexp,w
  2034  0037  1D03               	btfss	3,2
  2035  0038  283A               	goto	u133_21
  2036  0039  283B               	goto	u133_20
  2037  003A                     u133_21:
  2038  003A  2843               	goto	i1l1406
  2039  003B                     u133_20:
  2040  003B                     i1l1404:
  2041  003B  3000               	movlw	0
  2042  003C  00BD               	movwf	___flmul@b+3
  2043  003D  3000               	movlw	0
  2044  003E  00BC               	movwf	___flmul@b+2
  2045  003F  3000               	movlw	0
  2046  0040  00BB               	movwf	___flmul@b+1
  2047  0041  3000               	movlw	0
  2048  0042  00BA               	movwf	___flmul@b
  2049  0043                     i1l1406:
  2050  0043  17BC               	bsf	___flmul@b+2,7
  2051  0044  284D               	goto	i1l1410
  2052  0045                     i1l1408:
  2053  0045  3000               	movlw	0
  2054  0046  00BD               	movwf	___flmul@b+3
  2055  0047  3000               	movlw	0
  2056  0048  00BC               	movwf	___flmul@b+2
  2057  0049  3000               	movlw	0
  2058  004A  00BB               	movwf	___flmul@b+1
  2059  004B  3000               	movlw	0
  2060  004C  00BA               	movwf	___flmul@b
  2061  004D                     i1l1410:
  2062  004D  0841               	movf	___flmul@a+3,w
  2063  004E  3980               	andlw	128
  2064  004F  00C2               	movwf	??___flmul
  2065  0050  0842               	movf	??___flmul,w
  2066  0051  06C7               	xorwf	___flmul@sign,f
  2067  0052                     i1l1412:
  2068  0052  3541               	lslf	___flmul@a+3,w
  2069  0053  00C2               	movwf	??___flmul
  2070  0054  0842               	movf	??___flmul,w
  2071  0055  00CC               	movwf	___flmul@aexp
  2072  0056                     i1l1414:
  2073  0056  1FC0               	btfss	___flmul@a+2,7
  2074  0057  2859               	goto	u134_21
  2075  0058  285A               	goto	u134_20
  2076  0059                     u134_21:
  2077  0059  285B               	goto	i1l1418
  2078  005A                     u134_20:
  2079  005A                     i1l1416:
  2080  005A  144C               	bsf	___flmul@aexp,0
  2081  005B                     i1l1418:
  2082  005B  084C               	movf	___flmul@aexp,w
  2083  005C  1903               	btfsc	3,2
  2084  005D  285F               	goto	u135_21
  2085  005E  2860               	goto	u135_20
  2086  005F                     u135_21:
  2087  005F  286F               	goto	i1l1426
  2088  0060                     u135_20:
  2089  0060                     i1l1420:
  2090  0060  0A4C               	incf	___flmul@aexp,w
  2091  0061  1D03               	btfss	3,2
  2092  0062  2864               	goto	u136_21
  2093  0063  2865               	goto	u136_20
  2094  0064                     u136_21:
  2095  0064  286D               	goto	i1l1424
  2096  0065                     u136_20:
  2097  0065                     i1l1422:
  2098  0065  3000               	movlw	0
  2099  0066  00C1               	movwf	___flmul@a+3
  2100  0067  3000               	movlw	0
  2101  0068  00C0               	movwf	___flmul@a+2
  2102  0069  3000               	movlw	0
  2103  006A  00BF               	movwf	___flmul@a+1
  2104  006B  3000               	movlw	0
  2105  006C  00BE               	movwf	___flmul@a
  2106  006D                     i1l1424:
  2107  006D  17C0               	bsf	___flmul@a+2,7
  2108  006E  2877               	goto	i1l1428
  2109  006F                     i1l1426:
  2110  006F  3000               	movlw	0
  2111  0070  00C1               	movwf	___flmul@a+3
  2112  0071  3000               	movlw	0
  2113  0072  00C0               	movwf	___flmul@a+2
  2114  0073  3000               	movlw	0
  2115  0074  00BF               	movwf	___flmul@a+1
  2116  0075  3000               	movlw	0
  2117  0076  00BE               	movwf	___flmul@a
  2118  0077                     i1l1428:
  2119  0077  084C               	movf	___flmul@aexp,w
  2120  0078  1903               	btfsc	3,2
  2121  0079  287B               	goto	u137_21
  2122  007A  287C               	goto	u137_20
  2123  007B                     u137_21:
  2124  007B  2881               	goto	i1l1432
  2125  007C                     u137_20:
  2126  007C                     i1l1430:
  2127  007C  084D               	movf	___flmul@bexp,w
  2128  007D  1D03               	btfss	3,2
  2129  007E  2880               	goto	u138_21
  2130  007F  2881               	goto	u138_20
  2131  0080                     u138_21:
  2132  0080  288A               	goto	i1l1436
  2133  0081                     u138_20:
  2134  0081                     i1l1432:
  2135  0081  3000               	movlw	0
  2136  0082  00BD               	movwf	?___flmul+3
  2137  0083  3000               	movlw	0
  2138  0084  00BC               	movwf	?___flmul+2
  2139  0085  3000               	movlw	0
  2140  0086  00BB               	movwf	?___flmul+1
  2141  0087  3000               	movlw	0
  2142  0088  00BA               	movwf	?___flmul
  2143  0089  2A78               	goto	i1l651
  2144  008A                     i1l1436:
  2145  008A  083A               	movf	___flmul@b,w
  2146  008B  00C2               	movwf	??___flmul
  2147  008C  0842               	movf	??___flmul,w
  2148  008D  00F0               	movwf	__Umul8_16@multiplicand
  2149  008E  0840               	movf	___flmul@a+2,w
  2150  008F  3186  26B3  3180   	fcall	__Umul8_16
  2151  0092  0871               	movf	?__Umul8_16+1,w
  2152  0093  0020               	movlb	0	; select bank0
  2153  0094  00D3               	movwf	___flmul@temp+1
  2154  0095  0870               	movf	?__Umul8_16,w
  2155  0096  00D2               	movwf	___flmul@temp
  2156  0097                     i1l1438:
  2157  0097  0852               	movf	___flmul@temp,w
  2158  0098  00C2               	movwf	??___flmul
  2159  0099  01C3               	clrf	??___flmul+1
  2160  009A  01C4               	clrf	??___flmul+2
  2161  009B  01C5               	clrf	??___flmul+3
  2162  009C  0845               	movf	??___flmul+3,w
  2163  009D  00CB               	movwf	___flmul@grs+3
  2164  009E  0844               	movf	??___flmul+2,w
  2165  009F  00CA               	movwf	___flmul@grs+2
  2166  00A0  0843               	movf	??___flmul+1,w
  2167  00A1  00C9               	movwf	___flmul@grs+1
  2168  00A2  0842               	movf	??___flmul,w
  2169  00A3  00C8               	movwf	___flmul@grs
  2170  00A4                     i1l1440:
  2171  00A4  0853               	movf	___flmul@temp+1,w
  2172  00A5  00C2               	movwf	??___flmul
  2173  00A6  01C3               	clrf	??___flmul+1
  2174  00A7  01C4               	clrf	??___flmul+2
  2175  00A8  01C5               	clrf	??___flmul+3
  2176  00A9  0845               	movf	??___flmul+3,w
  2177  00AA  00D1               	movwf	___flmul@prod+3
  2178  00AB  0844               	movf	??___flmul+2,w
  2179  00AC  00D0               	movwf	___flmul@prod+2
  2180  00AD  0843               	movf	??___flmul+1,w
  2181  00AE  00CF               	movwf	___flmul@prod+1
  2182  00AF  0842               	movf	??___flmul,w
  2183  00B0  00CE               	movwf	___flmul@prod
  2184  00B1  083B               	movf	___flmul@b+1,w
  2185  00B2  00C2               	movwf	??___flmul
  2186  00B3  0842               	movf	??___flmul,w
  2187  00B4  00F0               	movwf	__Umul8_16@multiplicand
  2188  00B5  083F               	movf	___flmul@a+1,w
  2189  00B6  3186  26B3  3180   	fcall	__Umul8_16
  2190  00B9  0871               	movf	?__Umul8_16+1,w
  2191  00BA  0020               	movlb	0	; select bank0
  2192  00BB  00D3               	movwf	___flmul@temp+1
  2193  00BC  0870               	movf	?__Umul8_16,w
  2194  00BD  00D2               	movwf	___flmul@temp
  2195  00BE                     i1l1442:
  2196  00BE  0852               	movf	___flmul@temp,w
  2197  00BF  00C2               	movwf	??___flmul
  2198  00C0  01C3               	clrf	??___flmul+1
  2199  00C1  01C4               	clrf	??___flmul+2
  2200  00C2  01C5               	clrf	??___flmul+3
  2201  00C3  0842               	movf	??___flmul,w
  2202  00C4  07C8               	addwf	___flmul@grs,f
  2203  00C5  0843               	movf	??___flmul+1,w
  2204  00C6  3DC9               	addwfc	___flmul@grs+1,f
  2205  00C7  0844               	movf	??___flmul+2,w
  2206  00C8  3DCA               	addwfc	___flmul@grs+2,f
  2207  00C9  0845               	movf	??___flmul+3,w
  2208  00CA  3DCB               	addwfc	___flmul@grs+3,f
  2209  00CB                     i1l1444:
  2210  00CB  0853               	movf	___flmul@temp+1,w
  2211  00CC  00C2               	movwf	??___flmul
  2212  00CD  01C3               	clrf	??___flmul+1
  2213  00CE  01C4               	clrf	??___flmul+2
  2214  00CF  01C5               	clrf	??___flmul+3
  2215  00D0  0842               	movf	??___flmul,w
  2216  00D1  07CE               	addwf	___flmul@prod,f
  2217  00D2  0843               	movf	??___flmul+1,w
  2218  00D3  3DCF               	addwfc	___flmul@prod+1,f
  2219  00D4  0844               	movf	??___flmul+2,w
  2220  00D5  3DD0               	addwfc	___flmul@prod+2,f
  2221  00D6  0845               	movf	??___flmul+3,w
  2222  00D7  3DD1               	addwfc	___flmul@prod+3,f
  2223  00D8  083C               	movf	___flmul@b+2,w
  2224  00D9  00C2               	movwf	??___flmul
  2225  00DA  0842               	movf	??___flmul,w
  2226  00DB  00F0               	movwf	__Umul8_16@multiplicand
  2227  00DC  083E               	movf	___flmul@a,w
  2228  00DD  3186  26B3  3180   	fcall	__Umul8_16
  2229  00E0  0871               	movf	?__Umul8_16+1,w
  2230  00E1  0020               	movlb	0	; select bank0
  2231  00E2  00D3               	movwf	___flmul@temp+1
  2232  00E3  0870               	movf	?__Umul8_16,w
  2233  00E4  00D2               	movwf	___flmul@temp
  2234  00E5                     i1l1446:
  2235  00E5  0852               	movf	___flmul@temp,w
  2236  00E6  00C2               	movwf	??___flmul
  2237  00E7  01C3               	clrf	??___flmul+1
  2238  00E8  01C4               	clrf	??___flmul+2
  2239  00E9  01C5               	clrf	??___flmul+3
  2240  00EA  0842               	movf	??___flmul,w
  2241  00EB  07C8               	addwf	___flmul@grs,f
  2242  00EC  0843               	movf	??___flmul+1,w
  2243  00ED  3DC9               	addwfc	___flmul@grs+1,f
  2244  00EE  0844               	movf	??___flmul+2,w
  2245  00EF  3DCA               	addwfc	___flmul@grs+2,f
  2246  00F0  0845               	movf	??___flmul+3,w
  2247  00F1  3DCB               	addwfc	___flmul@grs+3,f
  2248  00F2                     i1l1448:
  2249  00F2  0853               	movf	___flmul@temp+1,w
  2250  00F3  00C2               	movwf	??___flmul
  2251  00F4  01C3               	clrf	??___flmul+1
  2252  00F5  01C4               	clrf	??___flmul+2
  2253  00F6  01C5               	clrf	??___flmul+3
  2254  00F7  0842               	movf	??___flmul,w
  2255  00F8  07CE               	addwf	___flmul@prod,f
  2256  00F9  0843               	movf	??___flmul+1,w
  2257  00FA  3DCF               	addwfc	___flmul@prod+1,f
  2258  00FB  0844               	movf	??___flmul+2,w
  2259  00FC  3DD0               	addwfc	___flmul@prod+2,f
  2260  00FD  0845               	movf	??___flmul+3,w
  2261  00FE  3DD1               	addwfc	___flmul@prod+3,f
  2262  00FF                     i1l1450:
  2263  00FF  3008               	movlw	8
  2264  0100                     u139_25:
  2265  0100  35C8               	lslf	___flmul@grs,f
  2266  0101  0DC9               	rlf	___flmul@grs+1,f
  2267  0102  0DCA               	rlf	___flmul@grs+2,f
  2268  0103  0DCB               	rlf	___flmul@grs+3,f
  2269  0104  0B89               	decfsz	9,f
  2270  0105  2900               	goto	u139_25
  2271  0106                     i1l1452:
  2272  0106  083B               	movf	___flmul@b+1,w
  2273  0107  00C2               	movwf	??___flmul
  2274  0108  0842               	movf	??___flmul,w
  2275  0109  00F0               	movwf	__Umul8_16@multiplicand
  2276  010A  083E               	movf	___flmul@a,w
  2277  010B  3186  26B3  3180   	fcall	__Umul8_16
  2278  010E  0871               	movf	?__Umul8_16+1,w
  2279  010F  0020               	movlb	0	; select bank0
  2280  0110  00D3               	movwf	___flmul@temp+1
  2281  0111  0870               	movf	?__Umul8_16,w
  2282  0112  00D2               	movwf	___flmul@temp
  2283  0113                     i1l1454:
  2284  0113  0852               	movf	___flmul@temp,w
  2285  0114  07C8               	addwf	___flmul@grs,f
  2286  0115  0853               	movf	___flmul@temp+1,w
  2287  0116  3DC9               	addwfc	___flmul@grs+1,f
  2288  0117  3000               	movlw	0
  2289  0118  3DCA               	addwfc	___flmul@grs+2,f
  2290  0119  3DCB               	addwfc	___flmul@grs+3,f
  2291  011A                     i1l1456:
  2292  011A  083A               	movf	___flmul@b,w
  2293  011B  00C2               	movwf	??___flmul
  2294  011C  0842               	movf	??___flmul,w
  2295  011D  00F0               	movwf	__Umul8_16@multiplicand
  2296  011E  083F               	movf	___flmul@a+1,w
  2297  011F  3186  26B3  3180   	fcall	__Umul8_16
  2298  0122  0871               	movf	?__Umul8_16+1,w
  2299  0123  0020               	movlb	0	; select bank0
  2300  0124  00D3               	movwf	___flmul@temp+1
  2301  0125  0870               	movf	?__Umul8_16,w
  2302  0126  00D2               	movwf	___flmul@temp
  2303  0127                     i1l1458:
  2304  0127  0852               	movf	___flmul@temp,w
  2305  0128  07C8               	addwf	___flmul@grs,f
  2306  0129  0853               	movf	___flmul@temp+1,w
  2307  012A  3DC9               	addwfc	___flmul@grs+1,f
  2308  012B  3000               	movlw	0
  2309  012C  3DCA               	addwfc	___flmul@grs+2,f
  2310  012D  3DCB               	addwfc	___flmul@grs+3,f
  2311  012E                     i1l1460:
  2312  012E  3008               	movlw	8
  2313  012F                     u140_25:
  2314  012F  35C8               	lslf	___flmul@grs,f
  2315  0130  0DC9               	rlf	___flmul@grs+1,f
  2316  0131  0DCA               	rlf	___flmul@grs+2,f
  2317  0132  0DCB               	rlf	___flmul@grs+3,f
  2318  0133  0B89               	decfsz	9,f
  2319  0134  292F               	goto	u140_25
  2320  0135  083A               	movf	___flmul@b,w
  2321  0136  00C2               	movwf	??___flmul
  2322  0137  0842               	movf	??___flmul,w
  2323  0138  00F0               	movwf	__Umul8_16@multiplicand
  2324  0139  083E               	movf	___flmul@a,w
  2325  013A  3186  26B3  3180   	fcall	__Umul8_16
  2326  013D  0871               	movf	?__Umul8_16+1,w
  2327  013E  0020               	movlb	0	; select bank0
  2328  013F  00D3               	movwf	___flmul@temp+1
  2329  0140  0870               	movf	?__Umul8_16,w
  2330  0141  00D2               	movwf	___flmul@temp
  2331  0142                     i1l1462:
  2332  0142  0852               	movf	___flmul@temp,w
  2333  0143  07C8               	addwf	___flmul@grs,f
  2334  0144  0853               	movf	___flmul@temp+1,w
  2335  0145  3DC9               	addwfc	___flmul@grs+1,f
  2336  0146  3000               	movlw	0
  2337  0147  3DCA               	addwfc	___flmul@grs+2,f
  2338  0148  3DCB               	addwfc	___flmul@grs+3,f
  2339  0149                     i1l1464:
  2340  0149  083B               	movf	___flmul@b+1,w
  2341  014A  00C2               	movwf	??___flmul
  2342  014B  0842               	movf	??___flmul,w
  2343  014C  00F0               	movwf	__Umul8_16@multiplicand
  2344  014D  0840               	movf	___flmul@a+2,w
  2345  014E  3186  26B3  3180   	fcall	__Umul8_16
  2346  0151  0871               	movf	?__Umul8_16+1,w
  2347  0152  0020               	movlb	0	; select bank0
  2348  0153  00D3               	movwf	___flmul@temp+1
  2349  0154  0870               	movf	?__Umul8_16,w
  2350  0155  00D2               	movwf	___flmul@temp
  2351  0156  0852               	movf	___flmul@temp,w
  2352  0157  07CE               	addwf	___flmul@prod,f
  2353  0158  0853               	movf	___flmul@temp+1,w
  2354  0159  3DCF               	addwfc	___flmul@prod+1,f
  2355  015A  3000               	movlw	0
  2356  015B  3DD0               	addwfc	___flmul@prod+2,f
  2357  015C  3DD1               	addwfc	___flmul@prod+3,f
  2358  015D                     i1l1466:
  2359  015D  083C               	movf	___flmul@b+2,w
  2360  015E  00C2               	movwf	??___flmul
  2361  015F  0842               	movf	??___flmul,w
  2362  0160  00F0               	movwf	__Umul8_16@multiplicand
  2363  0161  083F               	movf	___flmul@a+1,w
  2364  0162  3186  26B3  3180   	fcall	__Umul8_16
  2365  0165  0871               	movf	?__Umul8_16+1,w
  2366  0166  0020               	movlb	0	; select bank0
  2367  0167  00D3               	movwf	___flmul@temp+1
  2368  0168  0870               	movf	?__Umul8_16,w
  2369  0169  00D2               	movwf	___flmul@temp
  2370  016A                     i1l1468:
  2371  016A  0852               	movf	___flmul@temp,w
  2372  016B  07CE               	addwf	___flmul@prod,f
  2373  016C  0853               	movf	___flmul@temp+1,w
  2374  016D  3DCF               	addwfc	___flmul@prod+1,f
  2375  016E  3000               	movlw	0
  2376  016F  3DD0               	addwfc	___flmul@prod+2,f
  2377  0170  3DD1               	addwfc	___flmul@prod+3,f
  2378  0171  083C               	movf	___flmul@b+2,w
  2379  0172  00C2               	movwf	??___flmul
  2380  0173  0842               	movf	??___flmul,w
  2381  0174  00F0               	movwf	__Umul8_16@multiplicand
  2382  0175  0840               	movf	___flmul@a+2,w
  2383  0176  3186  26B3  3180   	fcall	__Umul8_16
  2384  0179  0871               	movf	?__Umul8_16+1,w
  2385  017A  0020               	movlb	0	; select bank0
  2386  017B  00D3               	movwf	___flmul@temp+1
  2387  017C  0870               	movf	?__Umul8_16,w
  2388  017D  00D2               	movwf	___flmul@temp
  2389  017E                     i1l1470:
  2390  017E  0852               	movf	___flmul@temp,w
  2391  017F  00C2               	movwf	??___flmul
  2392  0180  0853               	movf	___flmul@temp+1,w
  2393  0181  00C3               	movwf	??___flmul+1
  2394  0182  01C4               	clrf	??___flmul+2
  2395  0183  01C5               	clrf	??___flmul+3
  2396  0184  3008               	movlw	8
  2397  0185                     u141_25:
  2398  0185  35C2               	lslf	??___flmul,f
  2399  0186  0DC3               	rlf	??___flmul+1,f
  2400  0187  0DC4               	rlf	??___flmul+2,f
  2401  0188  0DC5               	rlf	??___flmul+3,f
  2402  0189                     u141_20:
  2403  0189  0B89               	decfsz	9,f
  2404  018A  2985               	goto	u141_25
  2405  018B  0842               	movf	??___flmul,w
  2406  018C  07CE               	addwf	___flmul@prod,f
  2407  018D  0843               	movf	??___flmul+1,w
  2408  018E  3DCF               	addwfc	___flmul@prod+1,f
  2409  018F  0844               	movf	??___flmul+2,w
  2410  0190  3DD0               	addwfc	___flmul@prod+2,f
  2411  0191  0845               	movf	??___flmul+3,w
  2412  0192  3DD1               	addwfc	___flmul@prod+3,f
  2413  0193                     i1l1472:
  2414  0193  0848               	movf	___flmul@grs,w
  2415  0194  00C2               	movwf	??___flmul
  2416  0195  0849               	movf	___flmul@grs+1,w
  2417  0196  00C3               	movwf	??___flmul+1
  2418  0197  084A               	movf	___flmul@grs+2,w
  2419  0198  00C4               	movwf	??___flmul+2
  2420  0199  084B               	movf	___flmul@grs+3,w
  2421  019A  00C5               	movwf	??___flmul+3
  2422  019B  3018               	movlw	24
  2423  019C                     u142_25:
  2424  019C  36C5               	lsrf	??___flmul+3,f
  2425  019D  0CC4               	rrf	??___flmul+2,f
  2426  019E  0CC3               	rrf	??___flmul+1,f
  2427  019F  0CC2               	rrf	??___flmul,f
  2428  01A0                     u142_20:
  2429  01A0  0B89               	decfsz	9,f
  2430  01A1  299C               	goto	u142_25
  2431  01A2  0842               	movf	??___flmul,w
  2432  01A3  07CE               	addwf	___flmul@prod,f
  2433  01A4  0843               	movf	??___flmul+1,w
  2434  01A5  3DCF               	addwfc	___flmul@prod+1,f
  2435  01A6  0844               	movf	??___flmul+2,w
  2436  01A7  3DD0               	addwfc	___flmul@prod+2,f
  2437  01A8  0845               	movf	??___flmul+3,w
  2438  01A9  3DD1               	addwfc	___flmul@prod+3,f
  2439  01AA                     i1l1474:
  2440  01AA  3008               	movlw	8
  2441  01AB                     u143_25:
  2442  01AB  35C8               	lslf	___flmul@grs,f
  2443  01AC  0DC9               	rlf	___flmul@grs+1,f
  2444  01AD  0DCA               	rlf	___flmul@grs+2,f
  2445  01AE  0DCB               	rlf	___flmul@grs+3,f
  2446  01AF  0B89               	decfsz	9,f
  2447  01B0  29AB               	goto	u143_25
  2448  01B1                     i1l1476:
  2449  01B1  084D               	movf	___flmul@bexp,w
  2450  01B2  074C               	addwf	___flmul@aexp,w
  2451  01B3  00C2               	movwf	??___flmul
  2452  01B4  01C3               	clrf	??___flmul+1
  2453  01B5  0DC3               	rlf	??___flmul+1,f
  2454  01B6  0842               	movf	??___flmul,w
  2455  01B7  3E82               	addlw	130
  2456  01B8  00D2               	movwf	___flmul@temp
  2457  01B9  30FF               	movlw	255
  2458  01BA  3D43               	addwfc	??___flmul+1,w
  2459  01BB  00D3               	movwf	___flmul@temp+1
  2460  01BC  29D4               	goto	i1l1488
  2461  01BD                     i1l1478:
  2462  01BD  3001               	movlw	1
  2463  01BE                     u144_25:
  2464  01BE  35CE               	lslf	___flmul@prod,f
  2465  01BF  0DCF               	rlf	___flmul@prod+1,f
  2466  01C0  0DD0               	rlf	___flmul@prod+2,f
  2467  01C1  0DD1               	rlf	___flmul@prod+3,f
  2468  01C2  0B89               	decfsz	9,f
  2469  01C3  29BE               	goto	u144_25
  2470  01C4                     i1l1480:
  2471  01C4  1FCB               	btfss	___flmul@grs+3,7
  2472  01C5  29C7               	goto	u145_21
  2473  01C6  29C8               	goto	u145_20
  2474  01C7                     u145_21:
  2475  01C7  29C9               	goto	i1l1484
  2476  01C8                     u145_20:
  2477  01C8                     i1l1482:
  2478  01C8  144E               	bsf	___flmul@prod,0
  2479  01C9                     i1l1484:
  2480  01C9  3001               	movlw	1
  2481  01CA                     u146_25:
  2482  01CA  35C8               	lslf	___flmul@grs,f
  2483  01CB  0DC9               	rlf	___flmul@grs+1,f
  2484  01CC  0DCA               	rlf	___flmul@grs+2,f
  2485  01CD  0DCB               	rlf	___flmul@grs+3,f
  2486  01CE  0B89               	decfsz	9,f
  2487  01CF  29CA               	goto	u146_25
  2488  01D0                     i1l1486:
  2489  01D0  30FF               	movlw	255
  2490  01D1  07D2               	addwf	___flmul@temp,f
  2491  01D2  30FF               	movlw	255
  2492  01D3  3DD3               	addwfc	___flmul@temp+1,f
  2493  01D4                     i1l1488:
  2494  01D4  1FD0               	btfss	___flmul@prod+2,7
  2495  01D5  29D7               	goto	u147_21
  2496  01D6  29D8               	goto	u147_20
  2497  01D7                     u147_21:
  2498  01D7  29BD               	goto	i1l1478
  2499  01D8                     u147_20:
  2500  01D8                     i1l1490:
  2501  01D8  01CC               	clrf	___flmul@aexp
  2502  01D9                     i1l1492:
  2503  01D9  1FCB               	btfss	___flmul@grs+3,7
  2504  01DA  29DC               	goto	u148_21
  2505  01DB  29DD               	goto	u148_20
  2506  01DC                     u148_21:
  2507  01DC  29F9               	goto	i1l1500
  2508  01DD                     u148_20:
  2509  01DD                     i1l1494:
  2510  01DD  30FF               	movlw	255
  2511  01DE  0548               	andwf	___flmul@grs,w
  2512  01DF  00C2               	movwf	??___flmul
  2513  01E0  30FF               	movlw	255
  2514  01E1  0549               	andwf	___flmul@grs+1,w
  2515  01E2  00C3               	movwf	??___flmul+1
  2516  01E3  30FF               	movlw	255
  2517  01E4  054A               	andwf	___flmul@grs+2,w
  2518  01E5  00C4               	movwf	??___flmul+2
  2519  01E6  307F               	movlw	127
  2520  01E7  054B               	andwf	___flmul@grs+3,w
  2521  01E8  00C5               	movwf	??___flmul+3
  2522  01E9  0845               	movf	??___flmul+3,w
  2523  01EA  0444               	iorwf	??___flmul+2,w
  2524  01EB  0443               	iorwf	??___flmul+1,w
  2525  01EC  0442               	iorwf	??___flmul,w
  2526  01ED  1903               	skipnz
  2527  01EE  29F0               	goto	u149_21
  2528  01EF  29F1               	goto	u149_20
  2529  01F0                     u149_21:
  2530  01F0  29F4               	goto	i1l657
  2531  01F1                     u149_20:
  2532  01F1                     i1l1496:
  2533  01F1  01CC               	clrf	___flmul@aexp
  2534  01F2  0ACC               	incf	___flmul@aexp,f
  2535  01F3  29F9               	goto	i1l1500
  2536  01F4                     i1l657:
  2537  01F4  1C4E               	btfss	___flmul@prod,0
  2538  01F5  29F7               	goto	u150_21
  2539  01F6  29F8               	goto	u150_20
  2540  01F7                     u150_21:
  2541  01F7  29F9               	goto	i1l1500
  2542  01F8                     u150_20:
  2543  01F8  29F1               	goto	i1l1496
  2544  01F9                     i1l1500:
  2545  01F9  084C               	movf	___flmul@aexp,w
  2546  01FA  1903               	btfsc	3,2
  2547  01FB  29FD               	goto	u151_21
  2548  01FC  29FE               	goto	u151_20
  2549  01FD                     u151_21:
  2550  01FD  2A26               	goto	i1l1510
  2551  01FE                     u151_20:
  2552  01FE                     i1l1502:
  2553  01FE  3001               	movlw	1
  2554  01FF  07CE               	addwf	___flmul@prod,f
  2555  0200  3000               	movlw	0
  2556  0201  3DCF               	addwfc	___flmul@prod+1,f
  2557  0202  3000               	movlw	0
  2558  0203  3DD0               	addwfc	___flmul@prod+2,f
  2559  0204  3000               	movlw	0
  2560  0205  3DD1               	addwfc	___flmul@prod+3,f
  2561  0206                     i1l1504:
  2562  0206  1C51               	btfss	___flmul@prod+3,0
  2563  0207  2A09               	goto	u152_21
  2564  0208  2A0A               	goto	u152_20
  2565  0209                     u152_21:
  2566  0209  2A26               	goto	i1l1510
  2567  020A                     u152_20:
  2568  020A                     i1l1506:
  2569  020A  084E               	movf	___flmul@prod,w
  2570  020B  00C2               	movwf	??___flmul
  2571  020C  084F               	movf	___flmul@prod+1,w
  2572  020D  00C3               	movwf	??___flmul+1
  2573  020E  0850               	movf	___flmul@prod+2,w
  2574  020F  00C4               	movwf	??___flmul+2
  2575  0210  0851               	movf	___flmul@prod+3,w
  2576  0211  00C5               	movwf	??___flmul+3
  2577  0212  3001               	movlw	1
  2578  0213  00C6               	movwf	??___flmul+4
  2579  0214                     u153_25:
  2580  0214  37C5               	asrf	??___flmul+3,f
  2581  0215  0CC4               	rrf	??___flmul+2,f
  2582  0216  0CC3               	rrf	??___flmul+1,f
  2583  0217  0CC2               	rrf	??___flmul,f
  2584  0218                     u153_20:
  2585  0218  0BC6               	decfsz	??___flmul+4,f
  2586  0219  2A14               	goto	u153_25
  2587  021A  0845               	movf	??___flmul+3,w
  2588  021B  00D1               	movwf	___flmul@prod+3
  2589  021C  0844               	movf	??___flmul+2,w
  2590  021D  00D0               	movwf	___flmul@prod+2
  2591  021E  0843               	movf	??___flmul+1,w
  2592  021F  00CF               	movwf	___flmul@prod+1
  2593  0220  0842               	movf	??___flmul,w
  2594  0221  00CE               	movwf	___flmul@prod
  2595  0222                     i1l1508:
  2596  0222  3001               	movlw	1
  2597  0223  07D2               	addwf	___flmul@temp,f
  2598  0224  3000               	movlw	0
  2599  0225  3DD3               	addwfc	___flmul@temp+1,f
  2600  0226                     i1l1510:
  2601  0226  0853               	movf	___flmul@temp+1,w
  2602  0227  3A80               	xorlw	128
  2603  0228  00C2               	movwf	??___flmul
  2604  0229  3080               	movlw	128
  2605  022A  0242               	subwf	??___flmul,w
  2606  022B  1D03               	skipz
  2607  022C  2A2F               	goto	u154_25
  2608  022D  30FF               	movlw	255
  2609  022E  0252               	subwf	___flmul@temp,w
  2610  022F                     u154_25:
  2611  022F  1C03               	skipc
  2612  0230  2A32               	goto	u154_21
  2613  0231  2A33               	goto	u154_20
  2614  0232                     u154_21:
  2615  0232  2A3D               	goto	i1l1514
  2616  0233                     u154_20:
  2617  0233                     i1l1512:
  2618  0233  307F               	movlw	127
  2619  0234  0020               	movlb	0	; select bank0
  2620  0235  00D1               	movwf	___flmul@prod+3
  2621  0236  3080               	movlw	128
  2622  0237  00D0               	movwf	___flmul@prod+2
  2623  0238  3000               	movlw	0
  2624  0239  00CF               	movwf	___flmul@prod+1
  2625  023A  3000               	movlw	0
  2626  023B  00CE               	movwf	___flmul@prod
  2627  023C  2A6C               	goto	i1l663
  2628  023D                     i1l1514:
  2629  023D  0020               	movlb	0	; select bank0
  2630  023E  0853               	movf	___flmul@temp+1,w
  2631  023F  3A80               	xorlw	128
  2632  0240  00C2               	movwf	??___flmul
  2633  0241  3080               	movlw	128
  2634  0242  0242               	subwf	??___flmul,w
  2635  0243  1D03               	skipz
  2636  0244  2A47               	goto	u155_25
  2637  0245  3001               	movlw	1
  2638  0246  0252               	subwf	___flmul@temp,w
  2639  0247                     u155_25:
  2640  0247  1803               	skipnc
  2641  0248  2A4A               	goto	u155_21
  2642  0249  2A4B               	goto	u155_20
  2643  024A                     u155_21:
  2644  024A  2A56               	goto	i1l1520
  2645  024B                     u155_20:
  2646  024B                     i1l1516:
  2647  024B  3000               	movlw	0
  2648  024C  0020               	movlb	0	; select bank0
  2649  024D  00D1               	movwf	___flmul@prod+3
  2650  024E  3000               	movlw	0
  2651  024F  00D0               	movwf	___flmul@prod+2
  2652  0250  3000               	movlw	0
  2653  0251  00CF               	movwf	___flmul@prod+1
  2654  0252  3000               	movlw	0
  2655  0253  00CE               	movwf	___flmul@prod
  2656  0254                     i1l1518:
  2657  0254  01C7               	clrf	___flmul@sign
  2658  0255  2A6C               	goto	i1l663
  2659  0256                     i1l1520:
  2660  0256  0020               	movlb	0	; select bank0
  2661  0257  0852               	movf	___flmul@temp,w
  2662  0258  00C2               	movwf	??___flmul
  2663  0259  0842               	movf	??___flmul,w
  2664  025A  00CD               	movwf	___flmul@bexp
  2665  025B  30FF               	movlw	255
  2666  025C  05CE               	andwf	___flmul@prod,f
  2667  025D  30FF               	movlw	255
  2668  025E  05CF               	andwf	___flmul@prod+1,f
  2669  025F  307F               	movlw	127
  2670  0260  05D0               	andwf	___flmul@prod+2,f
  2671  0261  3000               	movlw	0
  2672  0262  05D1               	andwf	___flmul@prod+3,f
  2673  0263                     i1l1522:
  2674  0263  1C4D               	btfss	___flmul@bexp,0
  2675  0264  2A66               	goto	u156_21
  2676  0265  2A67               	goto	u156_20
  2677  0266                     u156_21:
  2678  0266  2A68               	goto	i1l1526
  2679  0267                     u156_20:
  2680  0267                     i1l1524:
  2681  0267  17D0               	bsf	___flmul@prod+2,7
  2682  0268                     i1l1526:
  2683  0268  364D               	lsrf	___flmul@bexp,w
  2684  0269  00C2               	movwf	??___flmul
  2685  026A  0842               	movf	??___flmul,w
  2686  026B  00D1               	movwf	___flmul@prod+3
  2687  026C                     i1l663:
  2688  026C  0847               	movf	___flmul@sign,w
  2689  026D  00C2               	movwf	??___flmul
  2690  026E  0842               	movf	??___flmul,w
  2691  026F  04D1               	iorwf	___flmul@prod+3,f
  2692  0270                     i1l1528:
  2693  0270  0851               	movf	___flmul@prod+3,w
  2694  0271  00BD               	movwf	?___flmul+3
  2695  0272  0850               	movf	___flmul@prod+2,w
  2696  0273  00BC               	movwf	?___flmul+2
  2697  0274  084F               	movf	___flmul@prod+1,w
  2698  0275  00BB               	movwf	?___flmul+1
  2699  0276  084E               	movf	___flmul@prod,w
  2700  0277  00BA               	movwf	?___flmul
  2701  0278                     i1l651:
  2702  0278  0008               	return
  2703  0279                     __end_of___flmul:
  2704                           
  2705                           	psect	text8
  2706  06B3                     __ptext8:	
  2707 ;; *************** function __Umul8_16 *****************
  2708 ;; Defined at:
  2709 ;;		line 4 in file "/opt/microchip/xc8/v2.35/pic/sources/c99/common/Umul8_16.c"
  2710 ;; Parameters:    Size  Location     Type
  2711 ;;  multiplier      1    wreg     unsigned char 
  2712 ;;  multiplicand    1    0[COMMON] unsigned char 
  2713 ;; Auto vars:     Size  Location     Type
  2714 ;;  multiplier      1    8[COMMON] unsigned char 
  2715 ;;  word_mpld       2    6[COMMON] unsigned int 
  2716 ;;  product         2    4[COMMON] unsigned int 
  2717 ;; Return value:  Size  Location     Type
  2718 ;;                  2    0[COMMON] unsigned int 
  2719 ;; Registers used:
  2720 ;;		wreg, status,2, status,0
  2721 ;; Tracked objects:
  2722 ;;		On entry : 0/0
  2723 ;;		On exit  : 0/0
  2724 ;;		Unchanged: 0/0
  2725 ;; Data sizes:     COMMON   BANK0   BANK1   BANK2   BANK3   BANK4
  2726 ;;      Params:         2       0       0       0       0       0
  2727 ;;      Locals:         5       0       0       0       0       0
  2728 ;;      Temps:          2       0       0       0       0       0
  2729 ;;      Totals:         9       0       0       0       0       0
  2730 ;;Total ram usage:        9 bytes
  2731 ;; Hardware stack levels used: 1
  2732 ;; This function calls:
  2733 ;;		Nothing
  2734 ;; This function is called by:
  2735 ;;		___flmul
  2736 ;; This function uses a non-reentrant model
  2737 ;;
  2738                           
  2739  06B3                     __Umul8_16:	
  2740                           ;psect for function __Umul8_16
  2741                           
  2742                           
  2743                           ;incstack = 0
  2744                           ; Regs used in __Umul8_16: [wreg+status,2+status,0]
  2745                           ;__Umul8_16@multiplier stored from wreg
  2746  06B3  00F8               	movwf	__Umul8_16@multiplier
  2747  06B4                     i1l1202:
  2748  06B4  01F4               	clrf	__Umul8_16@product
  2749  06B5  01F5               	clrf	__Umul8_16@product+1
  2750  06B6                     i1l1204:
  2751  06B6  0870               	movf	__Umul8_16@multiplicand,w
  2752  06B7  00F2               	movwf	??__Umul8_16
  2753  06B8  01F3               	clrf	??__Umul8_16+1
  2754  06B9  0872               	movf	??__Umul8_16,w
  2755  06BA  00F6               	movwf	__Umul8_16@word_mpld
  2756  06BB  0873               	movf	??__Umul8_16+1,w
  2757  06BC  00F7               	movwf	__Umul8_16@word_mpld+1
  2758  06BD                     i1l1206:
  2759  06BD  1C78               	btfss	__Umul8_16@multiplier,0
  2760  06BE  2EC0               	goto	u89_21
  2761  06BF  2EC1               	goto	u89_20
  2762  06C0                     u89_21:
  2763  06C0  2EC5               	goto	i1l670
  2764  06C1                     u89_20:
  2765  06C1                     i1l1208:
  2766  06C1  0876               	movf	__Umul8_16@word_mpld,w
  2767  06C2  07F4               	addwf	__Umul8_16@product,f
  2768  06C3  0877               	movf	__Umul8_16@word_mpld+1,w
  2769  06C4  3DF5               	addwfc	__Umul8_16@product+1,f
  2770  06C5                     i1l670:
  2771  06C5  3001               	movlw	1
  2772  06C6                     u90_25:
  2773  06C6  35F6               	lslf	__Umul8_16@word_mpld,f
  2774  06C7  0DF7               	rlf	__Umul8_16@word_mpld+1,f
  2775  06C8  0B89               	decfsz	9,f
  2776  06C9  2EC6               	goto	u90_25
  2777  06CA  1003               	clrc
  2778  06CB  0CF8               	rrf	__Umul8_16@multiplier,f
  2779  06CC                     i1l1210:
  2780  06CC  0878               	movf	__Umul8_16@multiplier,w
  2781  06CD  1D03               	btfss	3,2
  2782  06CE  2ED0               	goto	u91_21
  2783  06CF  2ED1               	goto	u91_20
  2784  06D0                     u91_21:
  2785  06D0  2EBD               	goto	i1l1206
  2786  06D1                     u91_20:
  2787  06D1                     i1l1212:
  2788  06D1  0875               	movf	__Umul8_16@product+1,w
  2789  06D2  00F1               	movwf	?__Umul8_16+1
  2790  06D3  0874               	movf	__Umul8_16@product,w
  2791  06D4  00F0               	movwf	?__Umul8_16
  2792  06D5                     i1l672:
  2793  06D5  0008               	return
  2794  06D6                     __end_of__Umul8_16:
  2795                           
  2796                           	psect	text9
  2797  0279                     __ptext9:	
  2798 ;; *************** function ___fldiv *****************
  2799 ;; Defined at:
  2800 ;;		line 8 in file "/opt/microchip/xc8/v2.35/pic/sources/c99/common/sprcdiv.c"
  2801 ;; Parameters:    Size  Location     Type
  2802 ;;  a               4    0[BANK0 ] unsigned int 
  2803 ;;  b               4    4[BANK0 ] unsigned int 
  2804 ;; Auto vars:     Size  Location     Type
  2805 ;;  grs             4   20[BANK0 ] unsigned long 
  2806 ;;  rem             4   13[BANK0 ] unsigned long 
  2807 ;;  new_exp         2   18[BANK0 ] int 
  2808 ;;  aexp            1   25[BANK0 ] unsigned char 
  2809 ;;  bexp            1   24[BANK0 ] unsigned char 
  2810 ;;  sign            1   17[BANK0 ] unsigned char 
  2811 ;; Return value:  Size  Location     Type
  2812 ;;                  4    0[BANK0 ] unsigned char 
  2813 ;; Registers used:
  2814 ;;		wreg, status,2, status,0
  2815 ;; Tracked objects:
  2816 ;;		On entry : 0/0
  2817 ;;		On exit  : 0/0
  2818 ;;		Unchanged: 0/0
  2819 ;; Data sizes:     COMMON   BANK0   BANK1   BANK2   BANK3   BANK4
  2820 ;;      Params:         0       8       0       0       0       0
  2821 ;;      Locals:         0      13       0       0       0       0
  2822 ;;      Temps:          0       5       0       0       0       0
  2823 ;;      Totals:         0      26       0       0       0       0
  2824 ;;Total ram usage:       26 bytes
  2825 ;; Hardware stack levels used: 1
  2826 ;; This function calls:
  2827 ;;		Nothing
  2828 ;; This function is called by:
  2829 ;;		_i2c_receive_callback
  2830 ;; This function uses a non-reentrant model
  2831 ;;
  2832                           
  2833  0279                     ___fldiv:	
  2834                           ;psect for function ___fldiv
  2835                           
  2836  0279                     i1l1252:	
  2837                           ;incstack = 0
  2838                           ; Regs used in ___fldiv: [wreg+status,2+status,0]
  2839                           
  2840  0279  0020               	movlb	0	; select bank0
  2841  027A  0827               	movf	___fldiv@b+3,w
  2842  027B  3980               	andlw	128
  2843  027C  00A8               	movwf	??___fldiv
  2844  027D  0828               	movf	??___fldiv,w
  2845  027E  00B1               	movwf	___fldiv@sign
  2846  027F                     i1l1254:
  2847  027F  3527               	lslf	___fldiv@b+3,w
  2848  0280  00A8               	movwf	??___fldiv
  2849  0281  0828               	movf	??___fldiv,w
  2850  0282  00B8               	movwf	___fldiv@bexp
  2851  0283                     i1l1256:
  2852  0283  1FA6               	btfss	___fldiv@b+2,7
  2853  0284  2A86               	goto	u102_21
  2854  0285  2A87               	goto	u102_20
  2855  0286                     u102_21:
  2856  0286  2A88               	goto	i1l1260
  2857  0287                     u102_20:
  2858  0287                     i1l1258:
  2859  0287  1438               	bsf	___fldiv@bexp,0
  2860  0288                     i1l1260:
  2861  0288  0838               	movf	___fldiv@bexp,w
  2862  0289  1903               	btfsc	3,2
  2863  028A  2A8C               	goto	u103_21
  2864  028B  2A8D               	goto	u103_20
  2865  028C                     u103_21:
  2866  028C  2A9D               	goto	i1l1270
  2867  028D                     u103_20:
  2868  028D                     i1l1262:
  2869  028D  0A38               	incf	___fldiv@bexp,w
  2870  028E  1D03               	btfss	3,2
  2871  028F  2A91               	goto	u104_21
  2872  0290  2A92               	goto	u104_20
  2873  0291                     u104_21:
  2874  0291  2A9A               	goto	i1l1266
  2875  0292                     u104_20:
  2876  0292                     i1l1264:
  2877  0292  3000               	movlw	0
  2878  0293  00A7               	movwf	___fldiv@b+3
  2879  0294  3000               	movlw	0
  2880  0295  00A6               	movwf	___fldiv@b+2
  2881  0296  3000               	movlw	0
  2882  0297  00A5               	movwf	___fldiv@b+1
  2883  0298  3000               	movlw	0
  2884  0299  00A4               	movwf	___fldiv@b
  2885  029A                     i1l1266:
  2886  029A  17A6               	bsf	___fldiv@b+2,7
  2887  029B                     i1l1268:
  2888  029B  01A7               	clrf	___fldiv@b+3
  2889  029C  2AA5               	goto	i1l1272
  2890  029D                     i1l1270:
  2891  029D  3000               	movlw	0
  2892  029E  00A7               	movwf	___fldiv@b+3
  2893  029F  3000               	movlw	0
  2894  02A0  00A6               	movwf	___fldiv@b+2
  2895  02A1  3000               	movlw	0
  2896  02A2  00A5               	movwf	___fldiv@b+1
  2897  02A3  3000               	movlw	0
  2898  02A4  00A4               	movwf	___fldiv@b
  2899  02A5                     i1l1272:
  2900  02A5  0823               	movf	___fldiv@a+3,w
  2901  02A6  3980               	andlw	128
  2902  02A7  00A8               	movwf	??___fldiv
  2903  02A8  0828               	movf	??___fldiv,w
  2904  02A9  06B1               	xorwf	___fldiv@sign,f
  2905  02AA                     i1l1274:
  2906  02AA  3523               	lslf	___fldiv@a+3,w
  2907  02AB  00A8               	movwf	??___fldiv
  2908  02AC  0828               	movf	??___fldiv,w
  2909  02AD  00B9               	movwf	___fldiv@aexp
  2910  02AE                     i1l1276:
  2911  02AE  1FA2               	btfss	___fldiv@a+2,7
  2912  02AF  2AB1               	goto	u105_21
  2913  02B0  2AB2               	goto	u105_20
  2914  02B1                     u105_21:
  2915  02B1  2AB3               	goto	i1l1280
  2916  02B2                     u105_20:
  2917  02B2                     i1l1278:
  2918  02B2  1439               	bsf	___fldiv@aexp,0
  2919  02B3                     i1l1280:
  2920  02B3  0839               	movf	___fldiv@aexp,w
  2921  02B4  1903               	btfsc	3,2
  2922  02B5  2AB7               	goto	u106_21
  2923  02B6  2AB8               	goto	u106_20
  2924  02B7                     u106_21:
  2925  02B7  2AC8               	goto	i1l1290
  2926  02B8                     u106_20:
  2927  02B8                     i1l1282:
  2928  02B8  0A39               	incf	___fldiv@aexp,w
  2929  02B9  1D03               	btfss	3,2
  2930  02BA  2ABC               	goto	u107_21
  2931  02BB  2ABD               	goto	u107_20
  2932  02BC                     u107_21:
  2933  02BC  2AC5               	goto	i1l1286
  2934  02BD                     u107_20:
  2935  02BD                     i1l1284:
  2936  02BD  3000               	movlw	0
  2937  02BE  00A3               	movwf	___fldiv@a+3
  2938  02BF  3000               	movlw	0
  2939  02C0  00A2               	movwf	___fldiv@a+2
  2940  02C1  3000               	movlw	0
  2941  02C2  00A1               	movwf	___fldiv@a+1
  2942  02C3  3000               	movlw	0
  2943  02C4  00A0               	movwf	___fldiv@a
  2944  02C5                     i1l1286:
  2945  02C5  17A2               	bsf	___fldiv@a+2,7
  2946  02C6                     i1l1288:
  2947  02C6  01A3               	clrf	___fldiv@a+3
  2948  02C7  2AD0               	goto	i1l611
  2949  02C8                     i1l1290:
  2950  02C8  3000               	movlw	0
  2951  02C9  00A3               	movwf	___fldiv@a+3
  2952  02CA  3000               	movlw	0
  2953  02CB  00A2               	movwf	___fldiv@a+2
  2954  02CC  3000               	movlw	0
  2955  02CD  00A1               	movwf	___fldiv@a+1
  2956  02CE  3000               	movlw	0
  2957  02CF  00A0               	movwf	___fldiv@a
  2958  02D0                     i1l611:
  2959  02D0  0823               	movf	___fldiv@a+3,w
  2960  02D1  0422               	iorwf	___fldiv@a+2,w
  2961  02D2  0421               	iorwf	___fldiv@a+1,w
  2962  02D3  0420               	iorwf	___fldiv@a,w
  2963  02D4  1D03               	skipz
  2964  02D5  2AD7               	goto	u108_21
  2965  02D6  2AD8               	goto	u108_20
  2966  02D7                     u108_21:
  2967  02D7  2AF1               	goto	i1l1300
  2968  02D8                     u108_20:
  2969  02D8                     i1l1292:
  2970  02D8  3000               	movlw	0
  2971  02D9  00A7               	movwf	___fldiv@b+3
  2972  02DA  3000               	movlw	0
  2973  02DB  00A6               	movwf	___fldiv@b+2
  2974  02DC  3000               	movlw	0
  2975  02DD  00A5               	movwf	___fldiv@b+1
  2976  02DE  3000               	movlw	0
  2977  02DF  00A4               	movwf	___fldiv@b
  2978  02E0  3080               	movlw	128
  2979  02E1  04A6               	iorwf	___fldiv@b+2,f
  2980  02E2  307F               	movlw	127
  2981  02E3  04A7               	iorwf	___fldiv@b+3,f
  2982  02E4                     i1l1294:
  2983  02E4  0831               	movf	___fldiv@sign,w
  2984  02E5  00A8               	movwf	??___fldiv
  2985  02E6  0828               	movf	??___fldiv,w
  2986  02E7  04A7               	iorwf	___fldiv@b+3,f
  2987  02E8                     i1l1296:
  2988  02E8  0827               	movf	___fldiv@b+3,w
  2989  02E9  00A3               	movwf	?___fldiv+3
  2990  02EA  0826               	movf	___fldiv@b+2,w
  2991  02EB  00A2               	movwf	?___fldiv+2
  2992  02EC  0825               	movf	___fldiv@b+1,w
  2993  02ED  00A1               	movwf	?___fldiv+1
  2994  02EE  0824               	movf	___fldiv@b,w
  2995  02EF  00A0               	movwf	?___fldiv
  2996  02F0  2C2C               	goto	i1l613
  2997  02F1                     i1l1300:
  2998  02F1  0838               	movf	___fldiv@bexp,w
  2999  02F2  1D03               	btfss	3,2
  3000  02F3  2AF5               	goto	u109_21
  3001  02F4  2AF6               	goto	u109_20
  3002  02F5                     u109_21:
  3003  02F5  2AFF               	goto	i1l1306
  3004  02F6                     u109_20:
  3005  02F6                     i1l1302:
  3006  02F6  3000               	movlw	0
  3007  02F7  00A3               	movwf	?___fldiv+3
  3008  02F8  3000               	movlw	0
  3009  02F9  00A2               	movwf	?___fldiv+2
  3010  02FA  3000               	movlw	0
  3011  02FB  00A1               	movwf	?___fldiv+1
  3012  02FC  3000               	movlw	0
  3013  02FD  00A0               	movwf	?___fldiv
  3014  02FE  2C2C               	goto	i1l613
  3015  02FF                     i1l1306:
  3016  02FF  0838               	movf	___fldiv@bexp,w
  3017  0300  00A8               	movwf	??___fldiv
  3018  0301  01A9               	clrf	??___fldiv+1
  3019  0302  0829               	movf	??___fldiv+1,w
  3020  0303  00AB               	movwf	??___fldiv+3
  3021  0304  0839               	movf	___fldiv@aexp,w
  3022  0305  0228               	subwf	??___fldiv,w
  3023  0306  00AA               	movwf	??___fldiv+2
  3024  0307  1C03               	skipc
  3025  0308  03AB               	decf	??___fldiv+3,f
  3026  0309  082A               	movf	??___fldiv+2,w
  3027  030A  3E7F               	addlw	127
  3028  030B  00B2               	movwf	___fldiv@new_exp
  3029  030C  3000               	movlw	0
  3030  030D  3D2B               	addwfc	??___fldiv+3,w
  3031  030E  00B3               	movwf	___fldiv@new_exp+1
  3032  030F                     i1l1308:
  3033  030F  0827               	movf	___fldiv@b+3,w
  3034  0310  00B0               	movwf	___fldiv@rem+3
  3035  0311  0826               	movf	___fldiv@b+2,w
  3036  0312  00AF               	movwf	___fldiv@rem+2
  3037  0313  0825               	movf	___fldiv@b+1,w
  3038  0314  00AE               	movwf	___fldiv@rem+1
  3039  0315  0824               	movf	___fldiv@b,w
  3040  0316  00AD               	movwf	___fldiv@rem
  3041  0317                     i1l1310:
  3042  0317  3000               	movlw	0
  3043  0318  00A7               	movwf	___fldiv@b+3
  3044  0319  3000               	movlw	0
  3045  031A  00A6               	movwf	___fldiv@b+2
  3046  031B  3000               	movlw	0
  3047  031C  00A5               	movwf	___fldiv@b+1
  3048  031D  3000               	movlw	0
  3049  031E  00A4               	movwf	___fldiv@b
  3050  031F                     i1l1312:
  3051  031F  3000               	movlw	0
  3052  0320  00B7               	movwf	___fldiv@grs+3
  3053  0321  3000               	movlw	0
  3054  0322  00B6               	movwf	___fldiv@grs+2
  3055  0323  3000               	movlw	0
  3056  0324  00B5               	movwf	___fldiv@grs+1
  3057  0325  3000               	movlw	0
  3058  0326  00B4               	movwf	___fldiv@grs
  3059  0327                     i1l1314:
  3060  0327  01B9               	clrf	___fldiv@aexp
  3061  0328  2B67               	goto	i1l1334
  3062  0329                     i1l1316:
  3063  0329  0839               	movf	___fldiv@aexp,w
  3064  032A  1903               	btfsc	3,2
  3065  032B  2B2D               	goto	u110_21
  3066  032C  2B2E               	goto	u110_20
  3067  032D                     u110_21:
  3068  032D  2B48               	goto	i1l1326
  3069  032E                     u110_20:
  3070  032E                     i1l1318:
  3071  032E  3001               	movlw	1
  3072  032F                     u111_25:
  3073  032F  35AD               	lslf	___fldiv@rem,f
  3074  0330  0DAE               	rlf	___fldiv@rem+1,f
  3075  0331  0DAF               	rlf	___fldiv@rem+2,f
  3076  0332  0DB0               	rlf	___fldiv@rem+3,f
  3077  0333  0B89               	decfsz	9,f
  3078  0334  2B2F               	goto	u111_25
  3079  0335  3001               	movlw	1
  3080  0336                     u112_25:
  3081  0336  35A4               	lslf	___fldiv@b,f
  3082  0337  0DA5               	rlf	___fldiv@b+1,f
  3083  0338  0DA6               	rlf	___fldiv@b+2,f
  3084  0339  0DA7               	rlf	___fldiv@b+3,f
  3085  033A  0B89               	decfsz	9,f
  3086  033B  2B36               	goto	u112_25
  3087  033C                     i1l1320:
  3088  033C  1FB7               	btfss	___fldiv@grs+3,7
  3089  033D  2B3F               	goto	u113_21
  3090  033E  2B40               	goto	u113_20
  3091  033F                     u113_21:
  3092  033F  2B41               	goto	i1l1324
  3093  0340                     u113_20:
  3094  0340                     i1l1322:
  3095  0340  1424               	bsf	___fldiv@b,0
  3096  0341                     i1l1324:
  3097  0341  3001               	movlw	1
  3098  0342                     u114_25:
  3099  0342  35B4               	lslf	___fldiv@grs,f
  3100  0343  0DB5               	rlf	___fldiv@grs+1,f
  3101  0344  0DB6               	rlf	___fldiv@grs+2,f
  3102  0345  0DB7               	rlf	___fldiv@grs+3,f
  3103  0346  0B89               	decfsz	9,f
  3104  0347  2B42               	goto	u114_25
  3105  0348                     i1l1326:
  3106  0348  0823               	movf	___fldiv@a+3,w
  3107  0349  0230               	subwf	___fldiv@rem+3,w
  3108  034A  1D03               	skipz
  3109  034B  2B56               	goto	u115_25
  3110  034C  0822               	movf	___fldiv@a+2,w
  3111  034D  022F               	subwf	___fldiv@rem+2,w
  3112  034E  1D03               	skipz
  3113  034F  2B56               	goto	u115_25
  3114  0350  0821               	movf	___fldiv@a+1,w
  3115  0351  022E               	subwf	___fldiv@rem+1,w
  3116  0352  1D03               	skipz
  3117  0353  2B56               	goto	u115_25
  3118  0354  0820               	movf	___fldiv@a,w
  3119  0355  022D               	subwf	___fldiv@rem,w
  3120  0356                     u115_25:
  3121  0356  1C03               	skipc
  3122  0357  2B59               	goto	u115_21
  3123  0358  2B5A               	goto	u115_20
  3124  0359                     u115_21:
  3125  0359  2B63               	goto	i1l1332
  3126  035A                     u115_20:
  3127  035A                     i1l1328:
  3128  035A  1737               	bsf	___fldiv@grs+3,6
  3129  035B                     i1l1330:
  3130  035B  0820               	movf	___fldiv@a,w
  3131  035C  02AD               	subwf	___fldiv@rem,f
  3132  035D  0821               	movf	___fldiv@a+1,w
  3133  035E  3BAE               	subwfb	___fldiv@rem+1,f
  3134  035F  0822               	movf	___fldiv@a+2,w
  3135  0360  3BAF               	subwfb	___fldiv@rem+2,f
  3136  0361  0823               	movf	___fldiv@a+3,w
  3137  0362  3BB0               	subwfb	___fldiv@rem+3,f
  3138  0363                     i1l1332:
  3139  0363  3001               	movlw	1
  3140  0364  00A8               	movwf	??___fldiv
  3141  0365  0828               	movf	??___fldiv,w
  3142  0366  07B9               	addwf	___fldiv@aexp,f
  3143  0367                     i1l1334:
  3144  0367  301A               	movlw	26
  3145  0368  0239               	subwf	___fldiv@aexp,w
  3146  0369  1C03               	skipc
  3147  036A  2B6C               	goto	u116_21
  3148  036B  2B6D               	goto	u116_20
  3149  036C                     u116_21:
  3150  036C  2B29               	goto	i1l1316
  3151  036D                     u116_20:
  3152  036D                     i1l1336:
  3153  036D  0830               	movf	___fldiv@rem+3,w
  3154  036E  042F               	iorwf	___fldiv@rem+2,w
  3155  036F  042E               	iorwf	___fldiv@rem+1,w
  3156  0370  042D               	iorwf	___fldiv@rem,w
  3157  0371  1903               	skipnz
  3158  0372  2B74               	goto	u117_21
  3159  0373  2B75               	goto	u117_20
  3160  0374                     u117_21:
  3161  0374  2B8E               	goto	i1l1350
  3162  0375                     u117_20:
  3163  0375                     i1l1338:
  3164  0375  1434               	bsf	___fldiv@grs,0
  3165  0376  2B8E               	goto	i1l1350
  3166  0377                     i1l1340:
  3167  0377  3001               	movlw	1
  3168  0378                     u118_25:
  3169  0378  35A4               	lslf	___fldiv@b,f
  3170  0379  0DA5               	rlf	___fldiv@b+1,f
  3171  037A  0DA6               	rlf	___fldiv@b+2,f
  3172  037B  0DA7               	rlf	___fldiv@b+3,f
  3173  037C  0B89               	decfsz	9,f
  3174  037D  2B78               	goto	u118_25
  3175  037E                     i1l1342:
  3176  037E  1FB7               	btfss	___fldiv@grs+3,7
  3177  037F  2B81               	goto	u119_21
  3178  0380  2B82               	goto	u119_20
  3179  0381                     u119_21:
  3180  0381  2B83               	goto	i1l1346
  3181  0382                     u119_20:
  3182  0382                     i1l1344:
  3183  0382  1424               	bsf	___fldiv@b,0
  3184  0383                     i1l1346:
  3185  0383  3001               	movlw	1
  3186  0384                     u120_25:
  3187  0384  35B4               	lslf	___fldiv@grs,f
  3188  0385  0DB5               	rlf	___fldiv@grs+1,f
  3189  0386  0DB6               	rlf	___fldiv@grs+2,f
  3190  0387  0DB7               	rlf	___fldiv@grs+3,f
  3191  0388  0B89               	decfsz	9,f
  3192  0389  2B84               	goto	u120_25
  3193  038A                     i1l1348:
  3194  038A  30FF               	movlw	255
  3195  038B  07B2               	addwf	___fldiv@new_exp,f
  3196  038C  30FF               	movlw	255
  3197  038D  3DB3               	addwfc	___fldiv@new_exp+1,f
  3198  038E                     i1l1350:
  3199  038E  1FA6               	btfss	___fldiv@b+2,7
  3200  038F  2B91               	goto	u121_21
  3201  0390  2B92               	goto	u121_20
  3202  0391                     u121_21:
  3203  0391  2B77               	goto	i1l1340
  3204  0392                     u121_20:
  3205  0392                     i1l1352:
  3206  0392  01B9               	clrf	___fldiv@aexp
  3207  0393                     i1l1354:
  3208  0393  1FB7               	btfss	___fldiv@grs+3,7
  3209  0394  2B96               	goto	u122_21
  3210  0395  2B97               	goto	u122_20
  3211  0396                     u122_21:
  3212  0396  2BB3               	goto	i1l1362
  3213  0397                     u122_20:
  3214  0397                     i1l1356:
  3215  0397  30FF               	movlw	255
  3216  0398  0534               	andwf	___fldiv@grs,w
  3217  0399  00A8               	movwf	??___fldiv
  3218  039A  30FF               	movlw	255
  3219  039B  0535               	andwf	___fldiv@grs+1,w
  3220  039C  00A9               	movwf	??___fldiv+1
  3221  039D  30FF               	movlw	255
  3222  039E  0536               	andwf	___fldiv@grs+2,w
  3223  039F  00AA               	movwf	??___fldiv+2
  3224  03A0  307F               	movlw	127
  3225  03A1  0537               	andwf	___fldiv@grs+3,w
  3226  03A2  00AB               	movwf	??___fldiv+3
  3227  03A3  082B               	movf	??___fldiv+3,w
  3228  03A4  042A               	iorwf	??___fldiv+2,w
  3229  03A5  0429               	iorwf	??___fldiv+1,w
  3230  03A6  0428               	iorwf	??___fldiv,w
  3231  03A7  1903               	skipnz
  3232  03A8  2BAA               	goto	u123_21
  3233  03A9  2BAB               	goto	u123_20
  3234  03AA                     u123_21:
  3235  03AA  2BAE               	goto	i1l627
  3236  03AB                     u123_20:
  3237  03AB                     i1l1358:
  3238  03AB  01B9               	clrf	___fldiv@aexp
  3239  03AC  0AB9               	incf	___fldiv@aexp,f
  3240  03AD  2BB3               	goto	i1l1362
  3241  03AE                     i1l627:
  3242  03AE  1C24               	btfss	___fldiv@b,0
  3243  03AF  2BB1               	goto	u124_21
  3244  03B0  2BB2               	goto	u124_20
  3245  03B1                     u124_21:
  3246  03B1  2BB3               	goto	i1l1362
  3247  03B2                     u124_20:
  3248  03B2  2BAB               	goto	i1l1358
  3249  03B3                     i1l1362:
  3250  03B3  0839               	movf	___fldiv@aexp,w
  3251  03B4  1903               	btfsc	3,2
  3252  03B5  2BB7               	goto	u125_21
  3253  03B6  2BB8               	goto	u125_20
  3254  03B7                     u125_21:
  3255  03B7  2BE0               	goto	i1l1372
  3256  03B8                     u125_20:
  3257  03B8                     i1l1364:
  3258  03B8  3001               	movlw	1
  3259  03B9  07A4               	addwf	___fldiv@b,f
  3260  03BA  3000               	movlw	0
  3261  03BB  3DA5               	addwfc	___fldiv@b+1,f
  3262  03BC  3000               	movlw	0
  3263  03BD  3DA6               	addwfc	___fldiv@b+2,f
  3264  03BE  3000               	movlw	0
  3265  03BF  3DA7               	addwfc	___fldiv@b+3,f
  3266  03C0                     i1l1366:
  3267  03C0  1C27               	btfss	___fldiv@b+3,0
  3268  03C1  2BC3               	goto	u126_21
  3269  03C2  2BC4               	goto	u126_20
  3270  03C3                     u126_21:
  3271  03C3  2BE0               	goto	i1l1372
  3272  03C4                     u126_20:
  3273  03C4                     i1l1368:
  3274  03C4  0824               	movf	___fldiv@b,w
  3275  03C5  00A8               	movwf	??___fldiv
  3276  03C6  0825               	movf	___fldiv@b+1,w
  3277  03C7  00A9               	movwf	??___fldiv+1
  3278  03C8  0826               	movf	___fldiv@b+2,w
  3279  03C9  00AA               	movwf	??___fldiv+2
  3280  03CA  0827               	movf	___fldiv@b+3,w
  3281  03CB  00AB               	movwf	??___fldiv+3
  3282  03CC  3001               	movlw	1
  3283  03CD  00AC               	movwf	??___fldiv+4
  3284  03CE                     u127_25:
  3285  03CE  37AB               	asrf	??___fldiv+3,f
  3286  03CF  0CAA               	rrf	??___fldiv+2,f
  3287  03D0  0CA9               	rrf	??___fldiv+1,f
  3288  03D1  0CA8               	rrf	??___fldiv,f
  3289  03D2                     u127_20:
  3290  03D2  0BAC               	decfsz	??___fldiv+4,f
  3291  03D3  2BCE               	goto	u127_25
  3292  03D4  082B               	movf	??___fldiv+3,w
  3293  03D5  00A7               	movwf	___fldiv@b+3
  3294  03D6  082A               	movf	??___fldiv+2,w
  3295  03D7  00A6               	movwf	___fldiv@b+2
  3296  03D8  0829               	movf	??___fldiv+1,w
  3297  03D9  00A5               	movwf	___fldiv@b+1
  3298  03DA  0828               	movf	??___fldiv,w
  3299  03DB  00A4               	movwf	___fldiv@b
  3300  03DC                     i1l1370:
  3301  03DC  3001               	movlw	1
  3302  03DD  07B2               	addwf	___fldiv@new_exp,f
  3303  03DE  3000               	movlw	0
  3304  03DF  3DB3               	addwfc	___fldiv@new_exp+1,f
  3305  03E0                     i1l1372:
  3306  03E0  0833               	movf	___fldiv@new_exp+1,w
  3307  03E1  3A80               	xorlw	128
  3308  03E2  00A8               	movwf	??___fldiv
  3309  03E3  3080               	movlw	128
  3310  03E4  0228               	subwf	??___fldiv,w
  3311  03E5  1D03               	skipz
  3312  03E6  2BE9               	goto	u128_25
  3313  03E7  30FF               	movlw	255
  3314  03E8  0232               	subwf	___fldiv@new_exp,w
  3315  03E9                     u128_25:
  3316  03E9  1C03               	skipc
  3317  03EA  2BEC               	goto	u128_21
  3318  03EB  2BED               	goto	u128_20
  3319  03EC                     u128_21:
  3320  03EC  2BFA               	goto	i1l632
  3321  03ED                     u128_20:
  3322  03ED                     i1l1374:
  3323  03ED  30FF               	movlw	255
  3324  03EE  0020               	movlb	0	; select bank0
  3325  03EF  00B2               	movwf	___fldiv@new_exp
  3326  03F0  3000               	movlw	0
  3327  03F1  00B3               	movwf	___fldiv@new_exp+1
  3328  03F2  3000               	movlw	0
  3329  03F3  00A7               	movwf	___fldiv@b+3
  3330  03F4  3000               	movlw	0
  3331  03F5  00A6               	movwf	___fldiv@b+2
  3332  03F6  3000               	movlw	0
  3333  03F7  00A5               	movwf	___fldiv@b+1
  3334  03F8  3000               	movlw	0
  3335  03F9  00A4               	movwf	___fldiv@b
  3336  03FA                     i1l632:
  3337  03FA  0020               	movlb	0	; select bank0
  3338  03FB  0833               	movf	___fldiv@new_exp+1,w
  3339  03FC  3A80               	xorlw	128
  3340  03FD  00A8               	movwf	??___fldiv
  3341  03FE  3080               	movlw	128
  3342  03FF  0228               	subwf	??___fldiv,w
  3343  0400  1D03               	skipz
  3344  0401  2C04               	goto	u129_25
  3345  0402  3001               	movlw	1
  3346  0403  0232               	subwf	___fldiv@new_exp,w
  3347  0404                     u129_25:
  3348  0404  1803               	skipnc
  3349  0405  2C07               	goto	u129_21
  3350  0406  2C08               	goto	u129_20
  3351  0407                     u129_21:
  3352  0407  2C14               	goto	i1l633
  3353  0408                     u129_20:
  3354  0408                     i1l1376:
  3355  0408  0020               	movlb	0	; select bank0
  3356  0409  01B2               	clrf	___fldiv@new_exp
  3357  040A  01B3               	clrf	___fldiv@new_exp+1
  3358  040B                     i1l1378:
  3359  040B  3000               	movlw	0
  3360  040C  00A7               	movwf	___fldiv@b+3
  3361  040D  3000               	movlw	0
  3362  040E  00A6               	movwf	___fldiv@b+2
  3363  040F  3000               	movlw	0
  3364  0410  00A5               	movwf	___fldiv@b+1
  3365  0411  3000               	movlw	0
  3366  0412  00A4               	movwf	___fldiv@b
  3367  0413                     i1l1380:
  3368  0413  01B1               	clrf	___fldiv@sign
  3369  0414                     i1l633:
  3370  0414  0020               	movlb	0	; select bank0
  3371  0415  0832               	movf	___fldiv@new_exp,w
  3372  0416  00A8               	movwf	??___fldiv
  3373  0417  0828               	movf	??___fldiv,w
  3374  0418  00B8               	movwf	___fldiv@bexp
  3375  0419                     i1l1382:
  3376  0419  1C38               	btfss	___fldiv@bexp,0
  3377  041A  2C1C               	goto	u130_21
  3378  041B  2C1D               	goto	u130_20
  3379  041C                     u130_21:
  3380  041C  2C1F               	goto	i1l1386
  3381  041D                     u130_20:
  3382  041D                     i1l1384:
  3383  041D  17A6               	bsf	___fldiv@b+2,7
  3384  041E  2C23               	goto	i1l635
  3385  041F                     i1l1386:
  3386  041F  307F               	movlw	127
  3387  0420  00A8               	movwf	??___fldiv
  3388  0421  0828               	movf	??___fldiv,w
  3389  0422  05A6               	andwf	___fldiv@b+2,f
  3390  0423                     i1l635:
  3391  0423  3638               	lsrf	___fldiv@bexp,w
  3392  0424  00A8               	movwf	??___fldiv
  3393  0425  0828               	movf	??___fldiv,w
  3394  0426  00A7               	movwf	___fldiv@b+3
  3395  0427  0831               	movf	___fldiv@sign,w
  3396  0428  00A8               	movwf	??___fldiv
  3397  0429  0828               	movf	??___fldiv,w
  3398  042A  04A7               	iorwf	___fldiv@b+3,f
  3399  042B  2AE8               	goto	i1l1296
  3400  042C                     i1l613:
  3401  042C  0008               	return
  3402  042D                     __end_of___fldiv:
  3403  007E                     btemp	set	126	;btemp
  3404  007E                     int$flags	set	126
  3405  007E                     wtemp0	set	126
  3406                           
  3407                           	psect	idloc
  3408                           
  3409                           ;Config register IDLOC0 @ 0x8000
  3410                           ;	unspecified, using default values
  3411  8000                     	org	32768
  3412  8000  3FFF               	dw	16383
  3413                           
  3414                           ;Config register IDLOC1 @ 0x8001
  3415                           ;	unspecified, using default values
  3416  8001                     	org	32769
  3417  8001  3FFF               	dw	16383
  3418                           
  3419                           ;Config register IDLOC2 @ 0x8002
  3420                           ;	unspecified, using default values
  3421  8002                     	org	32770
  3422  8002  3FFF               	dw	16383
  3423                           
  3424                           ;Config register IDLOC3 @ 0x8003
  3425                           ;	unspecified, using default values
  3426  8003                     	org	32771
  3427  8003  3FFF               	dw	16383
  3428                           
  3429                           	psect	config
  3430                           
  3431                           ;Config register CONFIG1 @ 0x8007
  3432                           ;	unspecified, using default values
  3433                           ;	Oscillator Selection
  3434                           ;	FOSC = 0x7, unprogrammed default
  3435                           ;	Watchdog Timer Enable
  3436                           ;	WDTE = 0x3, unprogrammed default
  3437                           ;	Power-up Timer Enable
  3438                           ;	PWRTE = 0x1, unprogrammed default
  3439                           ;	MCLR Pin Function Select
  3440                           ;	MCLRE = 0x1, unprogrammed default
  3441                           ;	Flash Program Memory Code Protection
  3442                           ;	CP = 0x1, unprogrammed default
  3443                           ;	Data Memory Code Protection
  3444                           ;	CPD = 0x1, unprogrammed default
  3445                           ;	Brown-out Reset Enable
  3446                           ;	BOREN = 0x3, unprogrammed default
  3447                           ;	Clock Out Enable
  3448                           ;	CLKOUTEN = 0x1, unprogrammed default
  3449                           ;	Internal/External Switchover
  3450                           ;	IESO = 0x1, unprogrammed default
  3451                           ;	Fail-Safe Clock Monitor Enable
  3452                           ;	FCMEN = 0x1, unprogrammed default
  3453  8007                     	org	32775
  3454  8007  3FFF               	dw	16383
  3455                           
  3456                           ;Config register CONFIG2 @ 0x8008
  3457                           ;	unspecified, using default values
  3458                           ;	Flash Memory Self-Write Protection
  3459                           ;	WRT = 0x3, unprogrammed default
  3460                           ;	PLL Enable
  3461                           ;	PLLEN = 0x1, unprogrammed default
  3462                           ;	Stack Overflow/Underflow Reset Enable
  3463                           ;	STVREN = 0x1, unprogrammed default
  3464                           ;	Brown-out Reset Voltage Selection
  3465                           ;	BORV = 0x1, unprogrammed default
  3466                           ;	Low-Voltage Programming Enable
  3467                           ;	LVP = 0x1, unprogrammed default
  3468  8008                     	org	32776
  3469  8008  3FFF               	dw	16383

Data Sizes:
    Strings     0
    Constant    0
    Data        0
    BSS         8
    Persistent  32
    Stack       0

Auto Spaces:
    Space          Size  Autos    Used
    COMMON           14     14      14
    BANK0            80     73      79
    BANK1            80      0       2
    BANK2            80      0       0
    BANK3            80      0       0
    BANK4            32      0       0

Pointer List with Targets:

    None.

Critical Paths under _main in COMMON

    None.

Critical Paths under __isr in COMMON

    _i2c_receive_callback->___xxtofl
    ___fltol->___xxtofl
    ___flmul->___xxtofl
    ___fldiv->___xxtofl

Critical Paths under _main in BANK0

    None.

Critical Paths under __isr in BANK0

    __isr->_i2c_state
    _i2c_state->_i2c_receive_callback
    _i2c_receive_callback->___fltol
    ___fltol->___flmul
    ___flmul->___fldiv

Critical Paths under _main in BANK1

    None.

Critical Paths under __isr in BANK1

    None.

Critical Paths under _main in BANK2

    None.

Critical Paths under __isr in BANK2

    None.

Critical Paths under _main in BANK3

    None.

Critical Paths under __isr in BANK3

    None.

Critical Paths under _main in BANK4

    None.

Critical Paths under __isr in BANK4

    None.

Call Graph Tables:

 ---------------------------------------------------------------------------------
 (Depth) Function   	        Calls       Base Space   Used Autos Params    Refs
 ---------------------------------------------------------------------------------
 (0) _main                                                 0     0      0       0
                     _i2c_slave_init
 ---------------------------------------------------------------------------------
 (1) _i2c_slave_init                                       0     0      0       0
 ---------------------------------------------------------------------------------
 Estimated maximum stack depth 1
 ---------------------------------------------------------------------------------
 (Depth) Function   	        Calls       Base Space   Used Autos Params    Refs
 ---------------------------------------------------------------------------------
 (2) __isr                                                 0     0      0    5364
                          _i2c_state
 ---------------------------------------------------------------------------------
 (3) _i2c_state                                            2     2      0    5364
                                             71 BANK0      2     2      0
               _i2c_receive_callback
 ---------------------------------------------------------------------------------
 (4) _i2c_receive_callback                                 8     6      2    5364
                                             63 BANK0      8     6      2
                            ___fldiv
                            ___flmul
                            ___fltol
                           ___xxtofl
 ---------------------------------------------------------------------------------
 (5) ___xxtofl                                            14    10      4     474
                                              0 COMMON    14    10      4
 ---------------------------------------------------------------------------------
 (5) ___fltol                                             11     7      4     381
                                             52 BANK0     11     7      4
                            ___fldiv (ARG)
                            ___flmul (ARG)
                           ___xxtofl (ARG)
 ---------------------------------------------------------------------------------
 (5) ___flmul                                             26    18      8    2873
                                             26 BANK0     26    18      8
                          __Umul8_16
                            ___fldiv (ARG)
                           ___xxtofl (ARG)
 ---------------------------------------------------------------------------------
 (6) __Umul8_16                                            9     7      2     799
                                              0 COMMON     9     7      2
 ---------------------------------------------------------------------------------
 (5) ___fldiv                                             26    18      8    1425
                                              0 BANK0     26    18      8
                           ___xxtofl (ARG)
 ---------------------------------------------------------------------------------
 Estimated maximum stack depth 6
 ---------------------------------------------------------------------------------

 Call Graph Graphs:

 _main (ROOT)
   _i2c_slave_init

 __isr (ROOT)
   _i2c_state
     _i2c_receive_callback
       ___fldiv
         ___xxtofl (ARG)
       ___flmul
         __Umul8_16
         ___fldiv (ARG)
         ___xxtofl (ARG)
       ___fltol
         ___fldiv (ARG)
         ___flmul (ARG)
         ___xxtofl (ARG)
       ___xxtofl

 Address spaces:
Name               Size   Autos  Total    Cost      Usage
BIGRAM             160      0       0       0        0.0%
EEDATA             100      0       0       0        0.0%
NULL                 0      0       0       0        0.0%
CODE                 0      0       0       0        0.0%
BITCOMMON            E      0       0       1        0.0%
BITSFR0              0      0       0       1        0.0%
SFR0                 0      0       0       1        0.0%
COMMON               E      E       E       2      100.0%
BITSFR1              0      0       0       2        0.0%
SFR1                 0      0       0       2        0.0%
BITSFR2              0      0       0       3        0.0%
SFR2                 0      0       0       3        0.0%
STACK                0      0       0       3        0.0%
BITSFR3              0      0       0       4        0.0%
SFR3                 0      0       0       4        0.0%
ABS                  0      0      5F       4        0.0%
BITBANK0            50      0       0       5        0.0%
BITSFR4              0      0       0       5        0.0%
SFR4                 0      0       0       5        0.0%
BANK0               50     49      4F       6       98.8%
BITSFR5              0      0       0       6        0.0%
SFR5                 0      0       0       6        0.0%
BITBANK1            50      0       0       7        0.0%
BITSFR6              0      0       0       7        0.0%
SFR6                 0      0       0       7        0.0%
BANK1               50      0       2       8        2.5%
BITSFR7              0      0       0       8        0.0%
SFR7                 0      0       0       8        0.0%
BITBANK2            50      0       0       9        0.0%
BITSFR8              0      0       0       9        0.0%
SFR8                 0      0       0       9        0.0%
BANK2               50      0       0      10        0.0%
BITSFR9              0      0       0      10        0.0%
SFR9                 0      0       0      10        0.0%
BITBANK3            50      0       0      11        0.0%
BITSFR10             0      0       0      11        0.0%
SFR10                0      0       0      11        0.0%
BANK3               50      0       0      12        0.0%
BITSFR11             0      0       0      12        0.0%
SFR11                0      0       0      12        0.0%
BITBANK4            20      0       0      13        0.0%
BITSFR12             0      0       0      13        0.0%
SFR12                0      0       0      13        0.0%
BANK4               20      0       0      14        0.0%
BITSFR13             0      0       0      14        0.0%
SFR13                0      0       0      14        0.0%
BITSFR14             0      0       0      15        0.0%
SFR14                0      0       0      15        0.0%
DATA                 0      0      5F      15        0.0%
BITSFR15             0      0       0      16        0.0%
SFR15                0      0       0      16        0.0%
BITSFR16             0      0       0      17        0.0%
SFR16                0      0       0      17        0.0%
BITSFR17             0      0       0      18        0.0%
SFR17                0      0       0      18        0.0%
BITSFR18             0      0       0      19        0.0%
SFR18                0      0       0      19        0.0%
BITSFR19             0      0       0      20        0.0%
SFR19                0      0       0      20        0.0%
BITSFR20             0      0       0      21        0.0%
SFR20                0      0       0      21        0.0%
BITSFR21             0      0       0      22        0.0%
SFR21                0      0       0      22        0.0%
BITSFR22             0      0       0      23        0.0%
SFR22                0      0       0      23        0.0%
BITSFR23             0      0       0      24        0.0%
SFR23                0      0       0      24        0.0%
BITSFR24             0      0       0      25        0.0%
SFR24                0      0       0      25        0.0%
BITSFR25             0      0       0      26        0.0%
SFR25                0      0       0      26        0.0%
BITSFR26             0      0       0      27        0.0%
SFR26                0      0       0      27        0.0%
BITSFR27             0      0       0      28        0.0%
SFR27                0      0       0      28        0.0%
BITSFR28             0      0       0      29        0.0%
SFR28                0      0       0      29        0.0%
BITSFR29             0      0       0      30        0.0%
SFR29                0      0       0      30        0.0%
BITSFR30             0      0       0      31        0.0%
SFR30                0      0       0      31        0.0%
BITSFR31             0      0       0      32        0.0%
SFR31                0      0       0      32        0.0%


Microchip Technology PIC Macro Assembler V2.35 build 20211206165544 
Symbol Table                                                                                   Sat Apr  9 23:21:57 2022

                ___fldiv@aexp 0039                  ___fldiv@bexp 0038                             _a 0069  
                           _b 00A0                  ___fldiv@sign 0031                            l48 06B0  
                          l49 06B0                            l88 06E9           __Umul8_16@word_mpld 0076  
                         _GIE 005F                           _RB4 006C                           _PR2 001B  
                         _PR4 0416                           wreg 0009                  ___flmul@aexp 004C  
                ___flmul@bexp 004D                  ___flmul@sign 0047                  ___flmul@temp 0052  
                ___flmul@prod 004E                  ___fltol@exp1 005E                          l1600 06E3  
                        l1602 06E4                          l1604 06E5                          l1606 06E7  
                        l1640 0691                          l1650 0699                          l1642 0693  
                        l1660 06A7                          l1652 069C                          l1644 0694  
                        l1662 06AA                          l1654 069E                          l1646 0696  
                        l1638 068A                          l1664 06AD                          l1656 06A1  
                        l1648 0697                          l1594 06D6                          l1658 06A4  
                        l1596 06DF                          l1598 06E1                          _PEIE 005E  
                        i1l43 0521                          i1l93 065C                          i1l98 0689  
                        __isr 0004                          _main 068A                          _duty 006B  
                        btemp 007E                          start 0012               ___fldiv@new_exp 0032  
                       ?__isr 0070                 ___fltol@sign1 005D                         ?_main 0070  
             __end_of___fldiv 042D               __end_of___flmul 0279               __end_of___fltol 0643  
                       _T2CON 001C                         _T4CON 0417                         i1l104 0010  
                       i1l611 02D0                         i1l613 042C                         i1l701 057F  
                       i1l455 062D                         i1l632 03FA                         i1l448 0642  
                       i1l633 0414                         i1l458 0642                         i1l635 0423  
                       i1l627 03AE                         i1l651 0278                         i1l708 0599  
                       i1l709 05A5                         i1l670 06C5                         i1l663 026C  
                       i1l672 06D5                         i1l657 01F4                         i1l695 0544  
                       i1l697 05CD                         _TRISA 008C                         _TRISB 008D  
                       u90_25 06C6                         u91_20 06D1                         u91_21 06D0  
                       u92_20 05DA                         u92_21 05D9                         u93_20 05F0  
                       u93_25 05EC                         u94_20 0605                         u94_21 0604  
                       u95_20 060C                         u95_21 060B                         u96_25 060E  
                       u89_20 06C1                         u97_20 061C                         u89_21 06C0  
                       u97_21 061B                         u98_20 0623                         u98_21 0622  
                       u99_25 0625                         _value 006D                         _state 006E  
                       status 0003                         wtemp0 007E               __initialization 0014  
                __end_of__isr 0012                  __end_of_main 06B3                        ??__isr 007E  
                      ??_main 0000                _i2c_slave_init 06D6                        _CCPR3L 0311  
                      _CCPR4L 0318                        _ANSELA 018C                        _ANSELB 018D  
                      u100_20 0632                        u100_21 0631                        u101_20 0637  
                      u101_21 0636                        u110_20 032E                        u102_20 0287  
                      u110_21 032D                        u102_21 0286                        i1l1210 06CC  
                      i1l1202 06B4                        i1l1300 02F1                        i1l1212 06D1  
                      i1l1204 06B6                        i1l1310 0317                        i1l1302 02F6  
                      i1l1206 06BD                        i1l1230 0601                        i1l1222 05E3  
                      i1l1320 033C                        i1l1312 031F                        u103_20 028D  
                      i1l1208 06C1                        i1l1400 0031                        i1l1232 0605  
                      i1l1240 061D                        i1l1224 05F6                        i1l1216 05CE  
                      u103_21 028C                        i1l1330 035B                        i1l1322 0340  
                      i1l1314 0327                        i1l1306 02FF                        i1l1410 004D  
                      i1l1402 0036                        i1l1250 0637                        i1l1226 05F7  
                      i1l1218 05DA                        i1l1340 0377                        i1l1332 0363  
                      i1l1324 0341                        i1l1316 0329                        i1l1308 030F  
                      i1l1260 0288                        i1l1252 0279                        i1l1500 01F9  
                      i1l1420 0060                        i1l1412 0052                        i1l1404 003B  
                      i1l1228 05FF                        u111_25 032F                        i1l1342 037E  
                      i1l1350 038E                        i1l1318 032E                        i1l1326 0348  
                      i1l1334 0367                        i1l1262 028D                        i1l1270 029D  
                      i1l1254 027F                        i1l1502 01FE                        i1l1510 0226  
                      i1l1430 007C                        i1l1422 0065                        i1l1414 0056  
                      i1l1406 0043                        i1l1246 0624                        i1l1238 060D  
                      i1l1352 0392                        i1l1344 0382                        i1l1336 036D  
                      i1l1328 035A                        i1l1280 02B3                        i1l1272 02A5  
                      i1l1264 0292                        u104_20 0292                        i1l1256 0283  
                      i1l1520 0256                        i1l1512 0233                        i1l1504 0206  
                      i1l1440 00A4                        i1l1432 0081                        i1l1424 006D  
                      i1l1416 005A                        i1l1408 0045                        i1l1248 0632  
                      u104_21 0291                        i1l1370 03DC                        i1l1362 03B3  
                      i1l1354 0393                        i1l1346 0383                        i1l1338 0375  
                      i1l1282 02B8                        i1l1290 02C8                        i1l1274 02AA  
                      i1l1266 029A                        i1l1258 0287                        i1l1522 0263  
                      i1l1514 023D                        i1l1506 020A                        i1l1450 00FF  
                      i1l1442 00BE                        i1l1426 006F                        i1l1418 005B  
                      i1l1610 0649                        i1l1380 0413                        i1l1364 03B8  
                      i1l1372 03E0                        i1l1356 0397                        i1l1348 038A  
                      i1l1292 02D8                        i1l1284 02BD                        i1l1276 02AE  
                      i1l1268 029B                        i1l1524 0267                        i1l1516 024B  
                      i1l1508 0222                        i1l1460 012E                        i1l1452 0106  
                      i1l1444 00CB                        i1l1436 008A                        i1l1428 0077  
                      i1l1540 054C                        i1l1532 0523                        i1l1620 0660  
                      i1l1612 064F                        u120_25 0384                        u112_25 0336  
                      i1l1382 0419                        i1l1374 03ED                        i1l1366 03C0  
                      i1l1358 03AB                        i1l1294 02E4                        i1l1286 02C5  
                      i1l1278 02B2                        i1l1526 0268                        i1l1518 0254  
                      i1l1470 017E                        i1l1462 0142                        i1l1454 0113  
                      i1l1446 00E5                        i1l1438 0097                        i1l1550 056C  
                      i1l1534 0528                        i1l1622 0662                        i1l1614 0655  
                      i1l1384 041D                        i1l1376 0408                        i1l1368 03C4  
                      u121_20 0392                        u113_20 0340                        i1l1296 02E8  
                      i1l1288 02C6                        u105_20 02B2                        i1l1528 0270  
                      i1l1480 01C4                        i1l1472 0193                        i1l1464 0149  
                      i1l1456 011A                        i1l1448 00F2                        i1l1392 0022  
                      i1l1560 0593                        i1l1552 0570                        i1l1544 0555  
                      i1l1536 052C                        i1l1624 0668                        i1l1616 0656  
                      i1l1632 0679                        i1l1608 0643                        u121_21 0391  
                      u113_21 033F                        u105_21 02B1                        i1l1386 041F  
                      i1l1378 040B                        i1l1490 01D8                        i1l1482 01C8  
                      i1l1474 01AA                        i1l1466 015D                        i1l1458 0127  
                      i1l1394 0028                        i1l1570 05C4                        i1l1562 059D  
                      i1l1554 0578                        i1l1546 055A                        i1l1538 053C  
                      i1l1626 0672                        i1l1618 065B                        i1l1492 01D9  
                      i1l1484 01C9                        i1l1476 01B1                        i1l1468 016A  
                      i1l1396 002C                        i1l1572 05C5                        i1l1564 05A7  
                      i1l1556 0586                        i1l1548 0565                        i1l1580 0448  
                      i1l1628 0677                        i1l1494 01DD                        i1l1486 01D0  
                      i1l1478 01BD                        i1l1398 0030                        i1l1566 05BB  
                      i1l1558 058F                        i1l1590 0513                        i1l1582 0483  
                      i1l1670 000D                        u130_20 041D                        u122_20 0397  
                      u106_20 02B8                        i1l1496 01F1                        i1l1488 01D4  
                      i1l1568 05C0                        i1l1592 0515                        i1l1584 04A7  
                      i1l1576 042D                        u130_21 041C                        u122_21 0396  
                      u106_21 02B7                        i1l1586 04B2                        i1l1578 0443  
                      i1l1666 0006                        i1l1588 04B4                        i1l1692 0681  
                      i1l1668 000B                        u114_25 0342                        u123_20 03AB  
                      u115_20 035A                        u107_20 02BD                        u131_20 0030  
                      u123_21 03AA                        u115_21 0359                        u107_21 02BC  
                      u131_21 002F                        u115_25 0356                        u124_20 03B2  
                      u116_20 036D                        u108_20 02D8                        u132_20 0036  
                      u124_21 03B1                        u116_21 036C                        u108_21 02D7  
                      u132_21 0035                        u140_25 012F                        u125_20 03B8  
                      u117_20 0375                        u109_20 02F6                        u141_20 0189  
                      u133_20 003B                        u125_21 03B7                        u117_21 0374  
                      u109_21 02F5                        u133_21 003A                        u141_25 0185  
                      u126_20 03C4                        u150_20 01F8                        u142_20 01A0  
                      u134_20 005A                        u126_21 03C3                        u150_21 01F7  
                      u134_21 0059                        u118_25 0378                        u142_25 019C  
                      u127_20 03D2                        u119_20 0382                        u151_20 01FE  
                      u135_20 0060                        u119_21 0381                        u151_21 01FD  
                      u135_21 005F                        u127_25 03CE                        u143_25 01AB  
                      u128_20 03ED                        u152_20 020A                        u136_20 0065  
                      u128_21 03EC                        u152_21 0209                        u136_21 0064  
                      u128_25 03E9                        u144_25 01BE                        u160_25 055F  
                      u129_20 0408                        u153_20 0218                        u145_20 01C8  
                      u137_20 007C                        u161_20 056B                        u129_21 0407  
                      u145_21 01C7                        u137_21 007B                        u161_21 056A  
                      u129_25 0404                        u153_25 0214                        u154_20 0233  
                      u138_20 0081                        u170_20 05C4                        u154_21 0232  
                      u138_21 0080                        u170_21 05C3                        u154_25 022F  
                      u146_25 01CA                        u162_25 0579                        u155_20 024B  
                      u147_20 01D8                        u163_20 0585                        u155_21 024A  
                      u147_21 01D7                        u163_21 0584                        u155_25 0247  
                      u139_25 0100                        u171_25 0433                        u156_20 0267  
                      u148_20 01DD                        u172_20 0443                        u156_21 0266  
                      u148_21 01DC                        u172_21 0442                        u164_25 0589  
                      u149_20 01F1                        u165_20 0593                        u157_20 0528  
                      u173_20 065B                        u149_21 01F0                        u165_21 0592  
                      u157_21 0527                        u173_21 065A                        u166_20 0599  
                      u158_20 052C                        u174_20 0660                        u166_21 0598  
                      u158_21 052B                        u174_21 065F                        u167_20 059D  
                      u159_20 054C                        u175_20 0677                        u167_21 059C  
                      u159_21 054B                        u175_21 0676                        u168_20 05B1  
                      u176_20 000B                        u176_21 000A                        u168_25 05AD  
                      u169_20 05C0                        u169_21 05BF                        _SSP2IE 04A0  
                      _SSP2IF 00A0              __end_of___xxtofl 05CE                     ??___fldiv 0028  
                   ??___flmul 0042                     ??___fltol 0058        __end_of_i2c_slave_init 06EA  
                ___xxtofl@arg 007A                  ___xxtofl@exp 0079                  ___xxtofl@val 0070  
     __end_of__initialization 001E  __end_of_i2c_receive_callback 0522                    ___fltol@f1 0054  
              __pcstackCOMMON 0070               ?_i2c_slave_init 0070             __end_of_i2c_state 068A  
                  __pbssBANK0 0069                    __pbssBANK1 00A0             __end_of__Umul8_16 06D6  
                  __pmaintext 068A                    __pintentry 0004                       _CCP3CON 0313  
                     _CCP4CON 031A                       _CCPTMRS 029E                     ?___xxtofl 0070  
                     _SSP2ADD 021A                       _SSP2BUF 0219                       _SSP2MSK 021B  
                     ___fldiv 0279                       ___flmul 0022                       ___fltol 05CE  
                     __ptext1 06D6                       __ptext3 0643                       __ptext4 042D  
                     __ptext5 0522                       __ptext6 05CE                       __ptext7 0022  
                     __ptext8 06B3                       __ptext9 0279          _i2c_receive_callback 042D  
                  ??___xxtofl 0074          end_of_initialization 001E         ?_i2c_receive_callback 005F  
               ___xxtofl@sign 0078                   ___fldiv@grs 0034                   ___fldiv@rem 002D  
                 ___flmul@grs 0048              ??_i2c_slave_init 0000           start_initialization 0014  
                   _i2c_state 0643                     __Umul8_16 06B3        ??_i2c_receive_callback 0061  
                   ___fldiv@a 0020                     ___fldiv@b 0024                     ___flmul@a 003E  
                   ___flmul@b 003A                     ___latbits 0001                 __pcstackBANK0 0020  
               __pcstackBANK1 0000                    ?_i2c_state 0070                      ?___fldiv 0020  
                    ?___flmul 003A                      ?___fltol 0054                    ?__Umul8_16 0070  
    i2c_receive_callback@data 005F                      _SSP2CON1 021D                      _SSP2CON2 021E  
                    _SSP2CON3 021F                      _SSP2STAT 021C                   ??_i2c_state 0067  
    _i2c_receive_callback$802 0063                   ??__Umul8_16 0072                      ___xxtofl 0522  
                _SSP2CON1bits 021D                  _SSP2CON2bits 021E                      int$flags 007E  
                    intlevel1 0000                    _OSCCONbits 0099        __Umul8_16@multiplicand 0070  
        __Umul8_16@multiplier 0078             __Umul8_16@product 0074  
